MODULE windows x86_64 D370EDF4974538BD4C4C44205044422E1 shoop_crashhandling.pdb
INFO CODE_ID 6597DFB821000 shoop_crashhandling.dll
FUNC 1000 16 0 static void `dynamic initializer for 'g_exception_handler'()
FUNC 1020 16 0 static void `dynamic atexit destructor for 'g_exception_handler'()
FUNC 1040 101 0 shoop_init_crashhandling_with_cb
FUNC 1150 344 0 static bool dumpCallback(const wchar_t *, const wchar_t *, void *, struct _EXCEPTION_POINTERS *, struct MDRawAssertionInfo *, bool)
FUNC 14a0 1d 0 shoop_init_crashhandling
FUNC 14c0 15 0 shoop_test_crash_segfault
FUNC 14e0 27 0 shoop_test_crash_exception
FUNC 1510 b 0 shoop_test_crash_abort
FUNC 1520 f 0 static void _GLOBAL__sub_I_shoop_crashhandling.cpp()
FUNC 1530 3d 0 void std::unique_ptr<google_breakpad::ExceptionHandler,std::default_delete<google_breakpad::ExceptionHandler> >::~unique_ptr()
FUNC 1570 b 0 void std::allocator<wchar_t>::allocator()
FUNC 1580 121 0 void std::basic_string<wchar_t,std::char_traits<wchar_t>,std::allocator<wchar_t> >::basic_string<const char *,0>(const char *, const char *, const class std::allocator<wchar_t> & const)
FUNC 16b0 ae 0 class std::unique_ptr<google_breakpad::ExceptionHandler,std::default_delete<google_breakpad::ExceptionHandler> > std::make_unique<google_breakpad::ExceptionHandler,std::basic_string<wchar_t,std::char_traits<wchar_t>,std::allocator<wchar_t> > &,std::nullptr_t,bool (&)(const wchar_t *, const wchar_t *, void *, _EXCEPTION_POINTERS *, MDRawAssertionInfo *, bool),std::nullptr_t,google_breakpad::ExceptionHandler::HandlerType,0>(class std::basic_string<wchar_t,std::char_traits<wchar_t>,std::allocator<wchar_t> > & const, void * *,  & const, void * *, google_breakpad::ExceptionHandler::HandlerType *)
FUNC 1760 58 0 std::unique_ptr<google_breakpad::ExceptionHandler,std::default_delete<google_breakpad::ExceptionHandler> >::operator=<std::default_delete<google_breakpad::ExceptionHandler>,0>(std::unique_ptr<google_breakpad::ExceptionHandler,std::default_delete<google_breakpad::ExceptionHandler> > &&)
FUNC 17c0 6c 0 void std::basic_string<wchar_t,std::char_traits<wchar_t>,std::allocator<wchar_t> >::~basic_string()
FUNC 1830 36 0 std::runtime_error::runtime_error(char const *)
FUNC 1870 36 0 std::runtime_error::runtime_error(std::runtime_error const &)
FUNC 18b0 74 0 std::exception::exception(std::exception const &)
FUNC 1930 19 0 std::runtime_error::~runtime_error()
FUNC 1950 a1 0 void time_get<char,std::istreambuf_iterator<char,std::char_traits<char> > >::_Getvals<wchar_t>(wchar_t, const class _Locinfo & const)
FUNC 1a00 75 0 std::_Maklocwcs(wchar_t const *)
FUNC 1a80 a1 0 void time_get<wchar_t,std::istreambuf_iterator<wchar_t,std::char_traits<wchar_t> > >::_Getvals<wchar_t>(wchar_t, const class _Locinfo & const)
FUNC 1b30 2b 0 void std::_Compressed_pair<std::allocator<wchar_t>,std::_String_val<std::_Simple_types<wchar_t> >,1>::_Compressed_pair<const std::allocator<wchar_t> &>(struct std::_One_then_variadic_args_t, const class std::allocator<wchar_t> & const)
FUNC 1b60 29 0 void std::_Adl_verify_range<const char *,const char *>(const char * & const, const char * & const)
FUNC 1b90 e 0 const char * std::_Get_unwrapped<const char *&>(const char * & const)
FUNC 1ba0 6a 0 std::_Container_base12::_Alloc_proxy<std::allocator<std::_Container_proxy> >(std::allocator<std::_Container_proxy> &&)
FUNC 1c10 19 0 std::basic_string<wchar_t,std::char_traits<wchar_t>,std::allocator<wchar_t> >::_Getal()
FUNC 1c30 16 0 void std::allocator<std::_Container_proxy>::allocator<wchar_t>(const class std::allocator<wchar_t> & const)
FUNC 1c50 57 0 std::basic_string<wchar_t,std::char_traits<wchar_t>,std::allocator<wchar_t> >::_Tidy_init()
FUNC 1cb0 1e 0 __int64 std::distance<const char *>(const char *, const char *)
FUNC 1cd0 b 0 unsigned __int64 std::_Convert_size<unsigned long long,unsigned long long>(const unsigned __int64)
FUNC 1ce0 211 0 void std::basic_string<wchar_t,std::char_traits<wchar_t>,std::allocator<wchar_t> >::_Construct_from_iter<const char *,const char *,unsigned long long>(const char *, const char *, unsigned __int64)
FUNC 1f00 19 0 void std::_Compressed_pair<std::allocator<wchar_t>,std::_String_val<std::_Simple_types<wchar_t> >,1>::~_Compressed_pair()
FUNC 1f20 40 0 void std::_String_val<std::_Simple_types<wchar_t> >::_String_val()
FUNC 1f60 12 0 std::_Container_base12::_Container_base12()
FUNC 1f80 2a 0 std::_String_val<std::_Simple_types<wchar_t> >::_Bxty::_Bxty()
FUNC 1fb0 d4 0 std::_Verify_range<char>(char const * const,char const * const)
FUNC 2090 b 0 std::_Unfancy<std::_Container_proxy>(std::_Container_proxy *)
FUNC 20a0 26 0 std::allocator<std::_Container_proxy>::allocate(unsigned __int64)
FUNC 20d0 2e 0 void std::_Construct_in_place<std::_Container_proxy,std::_Container_base12 *>(struct std::_Container_proxy & const, struct std::_Container_base12 * *)
FUNC 2100 5f 0 std::_Allocate<16,std::_Default_allocate_traits,0>(unsigned __int64)
FUNC 2160 45 0 std::_Get_size_of_n<16>(unsigned __int64)
FUNC 21b0 10d 0 std::_Allocate_manually_vector_aligned<std::_Default_allocate_traits>(unsigned __int64)
FUNC 22c0 19 0 std::_Default_allocate_traits::_Allocate(unsigned __int64)
FUNC 22e0 20 0 std::_Throw_bad_array_new_length()
FUNC 2300 33 0 std::bad_array_new_length::bad_array_new_length()
FUNC 2340 36 0 std::bad_array_new_length::bad_array_new_length(std::bad_array_new_length const &)
FUNC 2380 36 0 std::bad_alloc::bad_alloc(std::bad_alloc const &)
FUNC 23c0 19 0 std::bad_array_new_length::~bad_array_new_length()
FUNC 23e0 3c 0 std::bad_alloc::bad_alloc(char const * const)
FUNC 2420 4a 0 void std::bad_array_new_length::~bad_array_new_length()
FUNC 2470 49 0 std::exception::what()
FUNC 24c0 4b 0 std::exception::exception(char const * const,int)
FUNC 2510 4a 0 void std::bad_alloc::~bad_alloc()
FUNC 2560 4a 0 void std::exception::~exception()
FUNC 25b0 54 0 std::exception::~exception()
FUNC 2610 19 0 std::bad_alloc::~bad_alloc()
FUNC 2630 b 0 void * std::_Voidify_iter<std::_Container_proxy *>(struct std::_Container_proxy *)
FUNC 2640 26 0 std::_Container_proxy::_Container_proxy(std::_Container_base12 *)
FUNC 2670 b 0 std::_Compressed_pair<std::allocator<wchar_t>,std::_String_val<std::_Simple_types<wchar_t> >,1>::_Get_first()
FUNC 2680 7 0 std::_String_val<std::_Simple_types<wchar_t> >::_Activate_SSO_buffer()
FUNC 2690 21 0 std::_WChar_traits<wchar_t>::assign(wchar_t &,wchar_t const &)
FUNC 26c0 7e 0 void std::_Container_proxy_ptr12<std::allocator<std::_Container_proxy> >::_Container_proxy_ptr12(class std::allocator<std::_Container_proxy> & const, struct std::_Container_base12 & const)
FUNC 2740 6f 0 std::basic_string<wchar_t,std::char_traits<wchar_t>,std::allocator<wchar_t> >::max_size()
FUNC 27b0 11 0 std::_Xlen_string()
FUNC 27d0 39 0 std::basic_string<wchar_t,std::char_traits<wchar_t>,std::allocator<wchar_t> >::_Calculate_growth(unsigned __int64)
FUNC 2810 26 0 std::allocator<wchar_t>::allocate(unsigned __int64)
FUNC 2840 28 0 void std::_Construct_in_place<wchar_t *,wchar_t *const &>(wchar_t * & const, wchar_t * & const)
FUNC 2870 12 0 std::basic_string<wchar_t,std::char_traits<wchar_t>,std::allocator<wchar_t> >::_Start_element_lifetimes(wchar_t * const,unsigned __int64)
FUNC 2890 b 0 std::_Unfancy<wchar_t>(wchar_t *)
FUNC 28a0 4e 0 std::_String_val<std::_Simple_types<wchar_t> >::_Myptr()
FUNC 28f0 12 0 std::_Basic_container_proxy_ptr12::_Release()
FUNC 2910 30 0 void std::_Tidy_deallocate_guard<std::basic_string<wchar_t,std::char_traits<wchar_t>,std::allocator<wchar_t> > >::~_Tidy_deallocate_guard()
FUNC 2940 34 0 void std::_Container_proxy_ptr12<std::allocator<std::_Container_proxy> >::~_Container_proxy_ptr12()
FUNC 2980 12 0 std::_Basic_container_proxy_ptr12::_Basic_container_proxy_ptr12()
FUNC 29a0 11 0 std::_Default_allocator_traits<std::allocator<wchar_t> >::max_size(std::allocator<wchar_t> const &)
FUNC 29c0 19 0 std::basic_string<wchar_t,std::char_traits<wchar_t>,std::allocator<wchar_t> >::_Getal()
FUNC 29e0 44 0 const unsigned __int64 & const std::max<unsigned long long>(const unsigned __int64 & const, const unsigned __int64 & const)
FUNC 2a30 44 0 const unsigned __int64 & const std::min<unsigned long long>(const unsigned __int64 & const, const unsigned __int64 & const)
FUNC 2a80 b 0 __int64 std::numeric_limits<long long>::max()
FUNC 2a90 b 0 std::_Compressed_pair<std::allocator<wchar_t>,std::_String_val<std::_Simple_types<wchar_t> >,1>::_Get_first()
FUNC 2aa0 a3 0 std::basic_string<wchar_t,std::char_traits<wchar_t>,std::allocator<wchar_t> >::_Calculate_growth(unsigned __int64,unsigned __int64,unsigned __int64)
FUNC 2b50 44 0 std::_Get_size_of_n<2>(unsigned __int64)
FUNC 2ba0 b 0 void * std::_Voidify_iter<wchar_t **>(wchar_t * *)
FUNC 2bb0 1c 0 std::_String_val<std::_Simple_types<wchar_t> >::_Large_string_engaged()
FUNC 2bd0 e4 0 std::basic_string<wchar_t,std::char_traits<wchar_t>,std::allocator<wchar_t> >::_Tidy_deallocate()
FUNC 2cc0 19 0 std::_Container_base12::_Orphan_all()
FUNC 2ce0 7 0 void std::_Destroy_in_place<wchar_t *>(wchar_t * & const)
FUNC 2cf0 cc 0 std::allocator<wchar_t>::deallocate(wchar_t * const,unsigned __int64)
FUNC 2dc0 3e 0 std::_Container_base12::_Orphan_all_locked_v3()
FUNC 2e00 76 0 std::_Container_base12::_Orphan_all_unlocked_v3()
FUNC 2e80 2f 0 struct std::_Iterator_base12 * std::exchange<std::_Iterator_base12 *,std::nullptr_t>(struct std::_Iterator_base12 * & const, void * *)
FUNC 2eb0 74 0 std::_Deallocate<16,0>(void *,unsigned __int64)
FUNC 2f30 1a8 0 std::_Adjust_manually_vector_aligned(void * &,unsigned __int64 &)
FUNC 30e0 23 0 std::_Delete_plain_internal<std::allocator<std::_Container_proxy> >(std::allocator<std::_Container_proxy> &,std::_Container_proxy * const)
FUNC 3110 29 0 std::_Deallocate_plain<std::allocator<std::_Container_proxy> >(std::allocator<std::_Container_proxy> &,std::_Container_proxy * const)
FUNC 3140 2c 0 std::_Default_allocator_traits<std::allocator<std::_Container_proxy> >::deallocate(std::allocator<std::_Container_proxy> &,std::_Container_proxy * const,unsigned __int64)
FUNC 3170 1d 0 void std::_String_val<std::_Simple_types<wchar_t> >::~_String_val()
FUNC 3190 7 0 std::_String_val<std::_Simple_types<wchar_t> >::_Bxty::~_Bxty()
FUNC 31a0 471 0 std::operator<<<wchar_t,std::char_traits<wchar_t> >(std::basic_ostream<wchar_t,std::char_traits<wchar_t> > &,char const *)
FUNC 3620 381 0 std::operator<<<wchar_t,std::char_traits<wchar_t> >(std::basic_ostream<wchar_t,std::char_traits<wchar_t> > &,wchar_t const *)
FUNC 39b0 54 0 std::endl<wchar_t,std::char_traits<wchar_t> >(std::basic_ostream<wchar_t,std::char_traits<wchar_t> > &)
FUNC 3a10 7e 0 void std::basic_string<wchar_t,std::char_traits<wchar_t>,std::allocator<wchar_t> >::basic_string(const wchar_t *)
FUNC 3a90 46 0 std::operator+<wchar_t,std::char_traits<wchar_t>,std::allocator<wchar_t> >(std::basic_string<wchar_t,std::char_traits<wchar_t>,std::allocator<wchar_t> > &&,wchar_t const * const)
FUNC 3ae0 46 0 std::operator+<wchar_t,std::char_traits<wchar_t>,std::allocator<wchar_t> >(std::basic_string<wchar_t,std::char_traits<wchar_t>,std::allocator<wchar_t> > &&,std::basic_string<wchar_t,std::char_traits<wchar_t>,std::allocator<wchar_t> > const &)
FUNC 3b30 c0 0 std::operator+<wchar_t,std::char_traits<wchar_t>,std::allocator<wchar_t> >(std::basic_string<wchar_t,std::char_traits<wchar_t>,std::allocator<wchar_t> > const &,wchar_t const * const)
FUNC 3bf0 13e 0 void std::wstring_convert<std::codecvt_utf8<wchar_t,1114111,0>,wchar_t,std::allocator<wchar_t>,std::allocator<char> >::wstring_convert()
FUNC 3d30 76 0 std::wstring_convert<std::codecvt_utf8<wchar_t,1114111,0>,wchar_t,std::allocator<wchar_t>,std::allocator<char> >::to_bytes(std::basic_string<wchar_t,std::char_traits<wchar_t>,std::allocator<wchar_t> > const &)
FUNC 3db0 48 0 void std::wstring_convert<std::codecvt_utf8<wchar_t,1114111,0>,wchar_t,std::allocator<wchar_t>,std::allocator<char> >::~wstring_convert()
FUNC 3e00 19 0 std::basic_string<char,std::char_traits<char>,std::allocator<char> >::c_str()
FUNC 3e20 6c 0 void std::basic_string<char,std::char_traits<char>,std::allocator<char> >::~basic_string()
FUNC 3e90 fe 0 void basic_ostream<wchar_t,std::char_traits<wchar_t> >::sentry::sentry(class basic_ostream<wchar_t,std::char_traits<wchar_t> > & const)
FUNC 3f90 13 0 bool basic_ostream<wchar_t,std::char_traits<wchar_t> >::sentry::operator bool()
FUNC 3fb0 1a5 0 std::use_facet<std::ctype<wchar_t> >(std::locale const &)
FUNC 4160 55 0 void locale::~locale()
FUNC 41c0 2b 0 std::_WChar_traits<wchar_t>::eq_int_type(unsigned short const &,unsigned short const &)
FUNC 41f0 5 0 std::_WChar_traits<wchar_t>::eof()
FUNC 4200 4d 0 void basic_ostream<wchar_t,std::char_traits<wchar_t> >::sentry::~sentry()
FUNC 4250 5d 0 void basic_ostream<wchar_t,std::char_traits<wchar_t> >::_Sentry_base::_Sentry_base(class basic_ostream<wchar_t,std::char_traits<wchar_t> > & const)
FUNC 42b0 74 0 void basic_ostream<wchar_t,std::char_traits<wchar_t> >::_Sentry_base::~_Sentry_base()
FUNC 4330 dc 0 const class locale::facet * locale::_Getfacet(unsigned __int64)
FUNC 4410 20 0 std::_Throw_bad_cast()
FUNC 4430 30 0 void std::unique_ptr<std::_Facet_base,std::default_delete<std::_Facet_base> >::unique_ptr<std::default_delete<std::_Facet_base>,0>(class _Facet_base *)
FUNC 4460 27 0 std::unique_ptr<std::_Facet_base,std::default_delete<std::_Facet_base> >::release()
FUNC 4490 3d 0 void std::unique_ptr<std::_Facet_base,std::default_delete<std::_Facet_base> >::~unique_ptr()
FUNC 44d0 39 0 std::bad_cast::bad_cast()
FUNC 4510 36 0 std::bad_cast::bad_cast(std::bad_cast const &)
FUNC 4550 19 0 std::bad_cast::~bad_cast()
FUNC 4570 4a 0 void std::bad_cast::~bad_cast()
FUNC 45c0 25 0 void std::_Compressed_pair<std::default_delete<std::_Facet_base>,std::_Facet_base *,1>::_Compressed_pair<std::_Facet_base *&>(struct std::_Zero_then_variadic_args_t, class _Facet_base * & const)
FUNC 45f0 2f 0 class _Facet_base * std::exchange<std::_Facet_base *,std::nullptr_t>(class _Facet_base * & const, void * *)
FUNC 4620 b 0 struct std::default_delete<std::_Facet_base> & const std::_Compressed_pair<std::default_delete<std::_Facet_base>,std::_Facet_base *,1>::_Get_first()
FUNC 4630 37 0 std::default_delete<std::_Facet_base>::operator()(std::_Facet_base *)
FUNC 4670 19 0 std::_WChar_traits<wchar_t>::length(wchar_t const *)
FUNC 4690 30 0 void std::_Compressed_pair<std::allocator<wchar_t>,std::_String_val<std::_Simple_types<wchar_t> >,1>::_Compressed_pair<>(struct std::_Zero_then_variadic_args_t)
FUNC 46c0 211 0 void std::basic_string<wchar_t,std::char_traits<wchar_t>,std::allocator<wchar_t> >::_Construct<1,const wchar_t *>(const wchar_t *, const unsigned __int64)
FUNC 48e0 34 0 std::_Char_traits<wchar_t,unsigned short>::copy(wchar_t * const,wchar_t const * const,unsigned __int64)
FUNC 4920 42 0 std::basic_string<wchar_t,std::char_traits<wchar_t>,std::allocator<wchar_t> >::append(wchar_t const * const)
FUNC 4970 94 0 void std::basic_string<wchar_t,std::char_traits<wchar_t>,std::allocator<wchar_t> >::basic_string(class std::basic_string<wchar_t,std::char_traits<wchar_t>,std::allocator<wchar_t> > *)
FUNC 4a10 e0 0 std::basic_string<wchar_t,std::char_traits<wchar_t>,std::allocator<wchar_t> >::append(wchar_t const * const,unsigned __int64)
FUNC 4af0 34 0 std::_Char_traits<wchar_t,unsigned short>::move(wchar_t * const,wchar_t const * const,unsigned __int64)
FUNC 4b30 26b 0 class std::basic_string<wchar_t,std::char_traits<wchar_t>,std::allocator<wchar_t> > & const std::basic_string<wchar_t,std::char_traits<wchar_t>,std::allocator<wchar_t> >::_Reallocate_grow_by<`lambda at C:\Program Files\Microsoft Visual Studio\2022\Community\VC\Tools\MSVC\14.36.32532\include\xstring:3320:13',const wchar_t *,unsigned long long>(const unsigned __int64, class std::basic_string<wchar_t,std::char_traits<wchar_t>,std::allocator<wchar_t> >::append::<lambda_1>, const wchar_t *, unsigned __int64)
FUNC 4da0 81 0 void std::basic_string<wchar_t,std::char_traits<wchar_t>,std::allocator<wchar_t> >::append::<lambda_1>::operator()(wchar_t *, const wchar_t *, const unsigned __int64, const wchar_t *, const unsigned __int64)
FUNC 4e30 2b 0 void std::_Compressed_pair<std::allocator<wchar_t>,std::_String_val<std::_Simple_types<wchar_t> >,1>::_Compressed_pair<std::allocator<wchar_t> >(struct std::_One_then_variadic_args_t, class std::allocator<wchar_t> *)
FUNC 4e60 7b 0 std::basic_string<wchar_t,std::char_traits<wchar_t>,std::allocator<wchar_t> >::_Take_contents(std::basic_string<wchar_t,std::char_traits<wchar_t>,std::allocator<wchar_t> > &)
FUNC 4ee0 23 0 std::basic_string<wchar_t,std::char_traits<wchar_t>,std::allocator<wchar_t> >::_Swap_proxy_and_iterators(std::basic_string<wchar_t,std::char_traits<wchar_t>,std::allocator<wchar_t> > &)
FUNC 4f10 55 0 std::basic_string<wchar_t,std::char_traits<wchar_t>,std::allocator<wchar_t> >::_Memcpy_val_from(std::basic_string<wchar_t,std::char_traits<wchar_t>,std::allocator<wchar_t> > const &)
FUNC 4f70 23 0 std::_Container_base12::_Swap_proxy_and_iterators(std::_Container_base12 &)
FUNC 4fa0 48 0 std::_Container_base12::_Swap_proxy_and_iterators_locked(std::_Container_base12 &)
FUNC 4ff0 6f 0 std::_Container_base12::_Swap_proxy_and_iterators_unlocked(std::_Container_base12 &)
FUNC 5060 48 0 std::basic_string<wchar_t,std::char_traits<wchar_t>,std::allocator<wchar_t> >::append(std::basic_string<wchar_t,std::char_traits<wchar_t>,std::allocator<wchar_t> > const &)
FUNC 50b0 4e 0 std::_String_val<std::_Simple_types<wchar_t> >::_Myptr()
FUNC 5100 f 0 std::basic_string<wchar_t,std::char_traits<wchar_t>,std::allocator<wchar_t> >::size()
FUNC 5110 19 0 std::basic_string<wchar_t,std::char_traits<wchar_t>,std::allocator<wchar_t> >::c_str()
FUNC 5130 241 0 void std::basic_string<wchar_t,std::char_traits<wchar_t>,std::allocator<wchar_t> >::basic_string(struct std::_String_constructor_concat_tag, const class std::basic_string<wchar_t,std::char_traits<wchar_t>,std::allocator<wchar_t> > & const, const wchar_t *, const unsigned __int64, const wchar_t *, const unsigned __int64)
FUNC 5380 15 0 std::_Default_allocator_traits<std::allocator<wchar_t> >::select_on_container_copy_construction(std::allocator<wchar_t> const &)
FUNC 53a0 64 0 void locale::locale()
FUNC 5410 84 0 void std::basic_string<char,std::char_traits<char>,std::allocator<char> >::basic_string()
FUNC 54a0 84 0 void std::basic_string<wchar_t,std::char_traits<wchar_t>,std::allocator<wchar_t> >::basic_string()
FUNC 5530 87 0 std::wstring_convert<std::codecvt_utf8<wchar_t,1114111,0>,wchar_t,std::allocator<wchar_t>,std::allocator<char> >::_Init(std::codecvt_utf8<wchar_t,1114111,0> const *)
FUNC 55c0 37 0 void std::codecvt_utf8<wchar_t,1114111,0>::codecvt_utf8(unsigned __int64)
FUNC 5600 4a 0 void std::wstring_convert<std::codecvt_utf8<wchar_t,1114111,0>,wchar_t,std::allocator<wchar_t>,std::allocator<char> >::~wstring_convert()
FUNC 5650 30 0 void std::_Compressed_pair<std::allocator<char>,std::_String_val<std::_Simple_types<char> >,1>::_Compressed_pair<>(struct std::_Zero_then_variadic_args_t)
FUNC 5680 19 0 std::basic_string<char,std::char_traits<char>,std::allocator<char> >::_Getal()
FUNC 56a0 16 0 void std::allocator<std::_Container_proxy>::allocator<char>(const class std::allocator<char> & const)
FUNC 56c0 55 0 std::basic_string<char,std::char_traits<char>,std::allocator<char> >::_Tidy_init()
FUNC 5720 b 0 void std::allocator<char>::allocator()
FUNC 5730 40 0 void std::_String_val<std::_Simple_types<char> >::_String_val()
FUNC 5770 2a 0 std::_String_val<std::_Simple_types<char> >::_Bxty::_Bxty()
FUNC 57a0 b 0 std::_Compressed_pair<std::allocator<char>,std::_String_val<std::_Simple_types<char> >,1>::_Get_first()
FUNC 57b0 7 0 std::_String_val<std::_Simple_types<char> >::_Activate_SSO_buffer()
FUNC 57c0 1f 0 std::_Narrow_char_traits<char,int>::assign(char &,char const &)
FUNC 57e0 a6 0 void locale::locale<std::codecvt_utf8<wchar_t,1114111,0> >(const class locale & const, const class std::codecvt_utf8<wchar_t,1114111,0> *)
FUNC 5890 7e 0 const class locale & const locale::operator=(const class locale & const)
FUNC 5910 4b 0 void std::codecvt_utf8<wchar_t,1114111,0>::~codecvt_utf8()
FUNC 5960 e 0 std::codecvt_utf8<wchar_t,1114111,0>::do_always_noconv()
FUNC 5970 c 0 std::codecvt_utf8<wchar_t,1114111,0>::do_max_length()
FUNC 5980 9 0 std::codecvt_utf8<wchar_t,1114111,0>::do_encoding()
FUNC 5990 2fe 0 std::codecvt_utf8<wchar_t,1114111,0>::do_in(_Mbstatet &,char const *,char const *,char const * &,wchar_t *,wchar_t *,wchar_t * &)
FUNC 5c90 2a5 0 std::codecvt_utf8<wchar_t,1114111,0>::do_out(_Mbstatet &,wchar_t const *,wchar_t const *,wchar_t const * &,char *,char *,char * &)
FUNC 5f40 33 0 std::codecvt_utf8<wchar_t,1114111,0>::do_unshift(_Mbstatet &,char *,char *,char * &)
FUNC 5f80 46 0 std::codecvt_utf8<wchar_t,1114111,0>::do_length(_Mbstatet &,char const *,char const *,unsigned __int64)
FUNC 5fd0 1a 0 void std::codecvt_utf8<wchar_t,1114111,0>::~codecvt_utf8()
FUNC 5ff0 1b2 0 std::_Codecvt_do_length<std::codecvt_utf8<wchar_t,1114111,0>,char,_Mbstatet>(std::codecvt_utf8<wchar_t,1114111,0> const &,_Mbstatet &,char const *,char const *,unsigned __int64)
FUNC 61b0 44 0 const __int64 & const std::min<long long>(const __int64 & const, const __int64 & const)
FUNC 6200 333 0 std::wstring_convert<std::codecvt_utf8<wchar_t,1114111,0>,wchar_t,std::allocator<wchar_t>,std::allocator<char> >::to_bytes(wchar_t const *,wchar_t const *)
FUNC 6540 d3 0 std::basic_string<char,std::char_traits<char>,std::allocator<char> >::append(unsigned __int64,char)
FUNC 6620 f4 0 std::basic_string<char,std::char_traits<char>,std::allocator<char> >::operator[](unsigned __int64)
FUNC 6720 f 0 std::basic_string<char,std::char_traits<char>,std::allocator<char> >::size()
FUNC 6730 d5 0 std::basic_string<char,std::char_traits<char>,std::allocator<char> >::append(char const * const,unsigned __int64)
FUNC 6810 9e 0 void std::basic_string<char,std::char_traits<char>,std::allocator<char> >::basic_string(const class std::basic_string<char,std::char_traits<char>,std::allocator<char> > & const)
FUNC 68b0 2a 0 std::_Throw_range_error(char const * const)
FUNC 68e0 a3 0 std::basic_string<char,std::char_traits<char>,std::allocator<char> >::push_back(char)
FUNC 6990 94 0 void std::basic_string<char,std::char_traits<char>,std::allocator<char> >::basic_string(class std::basic_string<char,std::char_traits<char>,std::allocator<char> > *)
FUNC 6a30 4e 0 std::_String_val<std::_Simple_types<char> >::_Myptr()
FUNC 6a80 38 0 std::_Narrow_char_traits<char,int>::assign(char * const,unsigned __int64,char)
FUNC 6ac0 264 0 class std::basic_string<char,std::char_traits<char>,std::allocator<char> > & const std::basic_string<char,std::char_traits<char>,std::allocator<char> >::_Reallocate_grow_by<`lambda at C:\Program Files\Microsoft Visual Studio\2022\Community\VC\Tools\MSVC\14.36.32532\include\xstring:3347:13',unsigned long long,char>(const unsigned __int64, class std::basic_string<char,std::char_traits<char>,std::allocator<char> >::append::<lambda_1>, unsigned __int64, char)
FUNC 6d30 1c 0 std::_String_val<std::_Simple_types<char> >::_Large_string_engaged()
FUNC 6d50 b 0 std::_Unfancy<char>(char *)
FUNC 6d60 6f 0 std::basic_string<char,std::char_traits<char>,std::allocator<char> >::max_size()
FUNC 6dd0 39 0 std::basic_string<char,std::char_traits<char>,std::allocator<char> >::_Calculate_growth(unsigned __int64)
FUNC 6e10 26 0 std::allocator<char>::allocate(unsigned __int64)
FUNC 6e40 12 0 std::basic_string<char,std::char_traits<char>,std::allocator<char> >::_Start_element_lifetimes(char * const,unsigned __int64)
FUNC 6e60 75 0 void std::basic_string<char,std::char_traits<char>,std::allocator<char> >::append::<lambda_1>::operator()(char *, const char *, const unsigned __int64, const unsigned __int64, const char)
FUNC 6ee0 cd 0 std::allocator<char>::deallocate(char * const,unsigned __int64)
FUNC 6fb0 28 0 void std::_Construct_in_place<char *,char *const &>(char * & const, char * & const)
FUNC 6fe0 e 0 std::_Default_allocator_traits<std::allocator<char> >::max_size(std::allocator<char> const &)
FUNC 6ff0 19 0 std::basic_string<char,std::char_traits<char>,std::allocator<char> >::_Getal()
FUNC 7010 b 0 std::_Compressed_pair<std::allocator<char>,std::_String_val<std::_Simple_types<char> >,1>::_Get_first()
FUNC 7020 a3 0 std::basic_string<char,std::char_traits<char>,std::allocator<char> >::_Calculate_growth(unsigned __int64,unsigned __int64,unsigned __int64)
FUNC 70d0 1c 0 std::_Get_size_of_n<1>(unsigned __int64)
FUNC 70f0 35 0 std::_Char_traits<char,int>::copy(char * const,char const * const,unsigned __int64)
FUNC 7130 b 0 void * std::_Voidify_iter<char **>(char * *)
FUNC 7140 35 0 std::_Char_traits<char,int>::move(char * const,char const * const,unsigned __int64)
FUNC 7180 26b 0 class std::basic_string<char,std::char_traits<char>,std::allocator<char> > & const std::basic_string<char,std::char_traits<char>,std::allocator<char> >::_Reallocate_grow_by<`lambda at C:\Program Files\Microsoft Visual Studio\2022\Community\VC\Tools\MSVC\14.36.32532\include\xstring:3320:13',const char *,unsigned long long>(const unsigned __int64, class std::basic_string<char,std::char_traits<char>,std::allocator<char> >::append::<lambda_1>, const char *, unsigned __int64)
FUNC 73f0 76 0 void std::basic_string<char,std::char_traits<char>,std::allocator<char> >::append::<lambda_1>::operator()(char *, const char *, const unsigned __int64, const char *, const unsigned __int64)
FUNC 7470 15 0 std::_Default_allocator_traits<std::allocator<char> >::select_on_container_copy_construction(std::allocator<char> const &)
FUNC 7490 2b 0 void std::_Compressed_pair<std::allocator<char>,std::_String_val<std::_Simple_types<char> >,1>::_Compressed_pair<std::allocator<char> >(struct std::_One_then_variadic_args_t, class std::allocator<char> *)
FUNC 74c0 1d1 0 void std::basic_string<char,std::char_traits<char>,std::allocator<char> >::_Construct<2,const char *>(const char *, const unsigned __int64)
FUNC 76a0 4e 0 std::_String_val<std::_Simple_types<char> >::_Myptr()
FUNC 76f0 19 0 void std::_Compressed_pair<std::allocator<char>,std::_String_val<std::_Simple_types<char> >,1>::~_Compressed_pair()
FUNC 7710 1d 0 void std::_String_val<std::_Simple_types<char> >::~_String_val()
FUNC 7730 7 0 std::_String_val<std::_Simple_types<char> >::_Bxty::~_Bxty()
FUNC 7740 36 0 std::range_error::range_error(char const *)
FUNC 7780 36 0 std::range_error::range_error(std::range_error const &)
FUNC 77c0 19 0 std::range_error::~range_error()
FUNC 77e0 4a 0 void std::range_error::~range_error()
FUNC 7830 21b 0 class std::basic_string<char,std::char_traits<char>,std::allocator<char> > & const std::basic_string<char,std::char_traits<char>,std::allocator<char> >::_Reallocate_grow_by<`lambda at C:\Program Files\Microsoft Visual Studio\2022\Community\VC\Tools\MSVC\14.36.32532\include\xstring:4096:13',char>(const unsigned __int64, class std::basic_string<char,std::char_traits<char>,std::allocator<char> >::push_back::<lambda_1>, char)
FUNC 7a50 6a 0 void std::basic_string<char,std::char_traits<char>,std::allocator<char> >::push_back::<lambda_1>::operator()(char *, const char *, const unsigned __int64, const char)
FUNC 7ac0 7b 0 std::basic_string<char,std::char_traits<char>,std::allocator<char> >::_Take_contents(std::basic_string<char,std::char_traits<char>,std::allocator<char> > &)
FUNC 7b40 23 0 std::basic_string<char,std::char_traits<char>,std::allocator<char> >::_Swap_proxy_and_iterators(std::basic_string<char,std::char_traits<char>,std::allocator<char> > &)
FUNC 7b70 55 0 std::basic_string<char,std::char_traits<char>,std::allocator<char> >::_Memcpy_val_from(std::basic_string<char,std::char_traits<char>,std::allocator<char> > const &)
FUNC 7bd0 e4 0 std::basic_string<char,std::char_traits<char>,std::allocator<char> >::_Tidy_deallocate()
FUNC 7cc0 7 0 void std::_Destroy_in_place<char *>(char * & const)
FUNC 7cd0 74 0 std::exception::exception(char const * const)
FUNC 7d50 4a 0 void std::runtime_error::~runtime_error()
FUNC 7da0 b 0 struct std::default_delete<google_breakpad::ExceptionHandler> & const std::_Compressed_pair<std::default_delete<google_breakpad::ExceptionHandler>,google_breakpad::ExceptionHandler *,1>::_Get_first()
FUNC 7db0 3c 0 std::default_delete<google_breakpad::ExceptionHandler>::operator()(google_breakpad::ExceptionHandler *)
FUNC 7df0 30 0 void std::unique_ptr<google_breakpad::ExceptionHandler,std::default_delete<google_breakpad::ExceptionHandler> >::unique_ptr<std::default_delete<google_breakpad::ExceptionHandler>,0>(class google_breakpad::ExceptionHandler *)
FUNC 7e20 25 0 void std::_Compressed_pair<std::default_delete<google_breakpad::ExceptionHandler>,google_breakpad::ExceptionHandler *,1>::_Compressed_pair<google_breakpad::ExceptionHandler *&>(struct std::_Zero_then_variadic_args_t, class google_breakpad::ExceptionHandler * & const)
FUNC 7e50 50 0 std::unique_ptr<google_breakpad::ExceptionHandler,std::default_delete<google_breakpad::ExceptionHandler> >::reset(google_breakpad::ExceptionHandler *)
FUNC 7ea0 27 0 std::unique_ptr<google_breakpad::ExceptionHandler,std::default_delete<google_breakpad::ExceptionHandler> >::release()
FUNC 7ed0 33 0 class google_breakpad::ExceptionHandler * std::exchange<google_breakpad::ExceptionHandler *,google_breakpad::ExceptionHandler *&>(class google_breakpad::ExceptionHandler * & const, class google_breakpad::ExceptionHandler * & const)
FUNC 7f10 2f 0 class google_breakpad::ExceptionHandler * std::exchange<google_breakpad::ExceptionHandler *,std::nullptr_t>(class google_breakpad::ExceptionHandler * & const, void * *)
FUNC 7f40 39 0 wmemcpy
FUNC 7f80 217 0 google_breakpad::ExceptionHandler::ExceptionHandler(std::basic_string<wchar_t,std::char_traits<wchar_t>,std::allocator<wchar_t> > const &,bool ,bool ,void *,int,_MINIDUMP_TYPE,wchar_t const *,google_breakpad::CustomClientInfo const *)
FUNC 81a0 791 0 google_breakpad::ExceptionHandler::Initialize(std::basic_string<wchar_t,std::char_traits<wchar_t>,std::allocator<wchar_t> > const &,bool ,bool ,void *,int,_MINIDUMP_TYPE,wchar_t const *,void *,google_breakpad::CrashGenerationClient *,google_breakpad::CustomClientInfo const *)
FUNC 8940 217 0 google_breakpad::ExceptionHandler::ExceptionHandler(std::basic_string<wchar_t,std::char_traits<wchar_t>,std::allocator<wchar_t> > const &,bool ,bool ,void *,int,_MINIDUMP_TYPE,void *,google_breakpad::CustomClientInfo const *)
FUNC 8b60 1f3 0 google_breakpad::ExceptionHandler::ExceptionHandler(std::basic_string<wchar_t,std::char_traits<wchar_t>,std::allocator<wchar_t> > const &,bool ,bool ,void *,int,google_breakpad::CrashGenerationClient *)
FUNC 8d60 1e1 0 google_breakpad::ExceptionHandler::ExceptionHandler(std::basic_string<wchar_t,std::char_traits<wchar_t>,std::allocator<wchar_t> > const &,bool ,bool ,void *,int)
FUNC 8f50 130 0 google_breakpad::ExceptionHandler::ExceptionHandlerThreadMain(void *)
FUNC 9080 211 0 google_breakpad::ExceptionHandler::HandleException(_EXCEPTION_POINTERS *)
FUNC 92a0 364 0 google_breakpad::ExceptionHandler::HandleInvalidParameter(wchar_t const *,wchar_t const *,wchar_t const *,unsigned int,unsigned __int64)
FUNC 9610 244 0 google_breakpad::ExceptionHandler::HandlePureVirtualCall()
FUNC 9860 407 0 google_breakpad::ExceptionHandler::~ExceptionHandler()
FUNC 9c70 31 0 google_breakpad::ExceptionHandler::RequestUpload(unsigned long)
FUNC 9cb0 135 0 google_breakpad::ExceptionHandler::WriteMinidumpWithException(unsigned long,_EXCEPTION_POINTERS *,MDRawAssertionInfo *)
FUNC 9df0 162 0 google_breakpad::ExceptionHandler::WriteMinidumpOnHandlerThread(_EXCEPTION_POINTERS *,MDRawAssertionInfo *)
FUNC 9f60 8c 0 google_breakpad::ExceptionHandler::WriteMinidump()
FUNC 9ff0 97 0 google_breakpad::ExceptionHandler::WriteMinidumpForException(_EXCEPTION_POINTERS *)
FUNC a090 141 0 google_breakpad::ExceptionHandler::UpdateNextID()
FUNC a1e0 e1 0 google_breakpad::ExceptionHandler::WriteMinidump(std::basic_string<wchar_t,std::char_traits<wchar_t>,std::allocator<wchar_t> > const &,bool ,void *,_MINIDUMP_TYPE)
FUNC a2d0 2c1 0 google_breakpad::ExceptionHandler::WriteMinidumpForChild(void *,unsigned long,std::basic_string<wchar_t,std::char_traits<wchar_t>,std::allocator<wchar_t> > const &,bool ,void *,_MINIDUMP_TYPE)
FUNC a5a0 523 0 google_breakpad::ExceptionHandler::WriteMinidumpWithExceptionForProcess(unsigned long,_EXCEPTION_POINTERS *,MDRawAssertionInfo *,void *,bool)
FUNC aad0 118 0 google_breakpad::ExceptionHandler::MinidumpWriteDumpCallback(void *,_MINIDUMP_CALLBACK_INPUT * const,_MINIDUMP_CALLBACK_OUTPUT *)
FUNC abf0 111 0 google_breakpad::ExceptionHandler::RegisterAppMemory(void *,unsigned __int64)
FUNC ad10 113 0 google_breakpad::ExceptionHandler::UnregisterAppMemory(void *)
FUNC ae30 1e 0 void google_breakpad::scoped_ptr<google_breakpad::CrashGenerationClient>::scoped_ptr(class google_breakpad::CrashGenerationClient *)
FUNC ae50 30 0 void std::list<google_breakpad::AppMemory,std::allocator<google_breakpad::AppMemory> >::list()
FUNC ae80 51 0 void std::list<google_breakpad::AppMemory,std::allocator<google_breakpad::AppMemory> >::~list()
FUNC aee0 3a 0 void google_breakpad::scoped_ptr<google_breakpad::CrashGenerationClient>::~scoped_ptr()
FUNC af20 63 0 google_breakpad::scoped_ptr<google_breakpad::CrashGenerationClient>::reset(google_breakpad::CrashGenerationClient *)
FUNC af90 e 0 google_breakpad::scoped_ptr<google_breakpad::CrashGenerationClient>::get()
FUNC afa0 44 0 google_breakpad::scoped_ptr<google_breakpad::CrashGenerationClient>::operator->()
FUNC aff0 25 0 google_breakpad::scoped_ptr<google_breakpad::CrashGenerationClient>::release()
FUNC b020 28 0 google_breakpad::ExceptionHandler::IsOutOfProcess()
FUNC b050 4b 0 google_breakpad::ExceptionHandler::set_dump_path(std::basic_string<wchar_t,std::char_traits<wchar_t>,std::allocator<wchar_t> > const &)
FUNC b0a0 27 0 std::list<google_breakpad::AppMemory,std::allocator<google_breakpad::AppMemory> >::push_back(google_breakpad::AppMemory const &)
FUNC b0d0 74 0 void std::vector<google_breakpad::ExceptionHandler *,std::allocator<google_breakpad::ExceptionHandler *> >::vector()
FUNC b150 23 0 void std::vector<google_breakpad::ExceptionHandler *,std::allocator<google_breakpad::ExceptionHandler *> >::push_back(class google_breakpad::ExceptionHandler * *)
FUNC b180 f4 0 class google_breakpad::ExceptionHandler * & const std::vector<google_breakpad::ExceptionHandler *,std::allocator<google_breakpad::ExceptionHandler *> >::back()
FUNC b280 144 0 void std::vector<google_breakpad::ExceptionHandler *,std::allocator<google_breakpad::ExceptionHandler *> >::pop_back()
FUNC b3d0 48 0 fprintf
FUNC b420 4a 0 class std::_Vector_iterator<std::_Vector_val<std::_Simple_types<google_breakpad::ExceptionHandler *> > > std::vector<google_breakpad::ExceptionHandler *,std::allocator<google_breakpad::ExceptionHandler *> >::begin()
FUNC b470 29 0 bool std::_Vector_const_iterator<std::_Vector_val<std::_Simple_types<google_breakpad::ExceptionHandler *> > >::operator!=(const class std::_Vector_const_iterator<std::_Vector_val<std::_Simple_types<google_breakpad::ExceptionHandler *> > > & const)
FUNC b4a0 4a 0 class std::_Vector_iterator<std::_Vector_val<std::_Simple_types<google_breakpad::ExceptionHandler *> > > std::vector<google_breakpad::ExceptionHandler *,std::allocator<google_breakpad::ExceptionHandler *> >::end()
FUNC b4f0 19 0 void std::_Vector_iterator<std::_Vector_val<std::_Simple_types<google_breakpad::ExceptionHandler *> > >::~_Vector_iterator()
FUNC b510 19 0 class google_breakpad::ExceptionHandler * & const std::_Vector_iterator<std::_Vector_val<std::_Simple_types<google_breakpad::ExceptionHandler *> > >::operator*()
FUNC b530 1c7 0 class std::_Vector_iterator<std::_Vector_val<std::_Simple_types<google_breakpad::ExceptionHandler *> > > std::vector<google_breakpad::ExceptionHandler *,std::allocator<google_breakpad::ExceptionHandler *> >::erase(class std::_Vector_const_iterator<std::_Vector_val<std::_Simple_types<google_breakpad::ExceptionHandler *> > >)
FUNC b700 39 0 void std::_Vector_const_iterator<std::_Vector_val<std::_Simple_types<google_breakpad::ExceptionHandler *> > >::_Vector_const_iterator(const class std::_Vector_const_iterator<std::_Vector_val<std::_Simple_types<google_breakpad::ExceptionHandler *> > > & const)
FUNC b740 2c 0 class std::_Vector_iterator<std::_Vector_val<std::_Simple_types<google_breakpad::ExceptionHandler *> > > & const std::_Vector_iterator<std::_Vector_val<std::_Simple_types<google_breakpad::ExceptionHandler *> > >::operator=(class std::_Vector_iterator<std::_Vector_val<std::_Simple_types<google_breakpad::ExceptionHandler *> > > *)
FUNC b770 22 0 class std::_Vector_iterator<std::_Vector_val<std::_Simple_types<google_breakpad::ExceptionHandler *> > > & const std::_Vector_iterator<std::_Vector_val<std::_Simple_types<google_breakpad::ExceptionHandler *> > >::operator++()
FUNC b7a0 2f 0 bool std::vector<google_breakpad::ExceptionHandler *,std::allocator<google_breakpad::ExceptionHandler *> >::empty()
FUNC b7d0 64 0 void std::vector<google_breakpad::ExceptionHandler *,std::allocator<google_breakpad::ExceptionHandler *> >::~vector()
FUNC b840 aa 0 google_breakpad::AutoExceptionHandler::AutoExceptionHandler()
FUNC b8f0 e 0 google_breakpad::AutoExceptionHandler::get_handler()
FUNC b900 16 0 google_breakpad::ExceptionHandler::get_handle_debug_exceptions()
FUNC b920 94 0 google_breakpad::AutoExceptionHandler::~AutoExceptionHandler()
FUNC b9c0 5f 0 snwprintf_s
FUNC ba20 114 0 std::_List_const_iterator<std::_List_val<std::_List_simple_types<google_breakpad::AppMemory> > >::operator==(std::_List_const_iterator<std::_List_val<std::_List_simple_types<google_breakpad::AppMemory> > > const &)
FUNC bb40 21 0 std::_List_const_iterator<std::_List_val<std::_List_simple_types<google_breakpad::AppMemory> > >::operator->()
FUNC bb70 6a 0 std::_List_const_iterator<std::_List_val<std::_List_simple_types<google_breakpad::AppMemory> > >::operator++(int)
FUNC bbe0 19 0 void std::_List_const_iterator<std::_List_val<std::_List_simple_types<google_breakpad::AppMemory> > >::~_List_const_iterator()
FUNC bc00 e4 0 std::list<google_breakpad::AppMemory,std::allocator<google_breakpad::AppMemory> >::front()
FUNC bcf0 30 0 google_breakpad::MinidumpCallbackContext::MinidumpCallbackContext()
FUNC bd20 3e 0 std::list<google_breakpad::AppMemory,std::allocator<google_breakpad::AppMemory> >::begin()
FUNC bd60 2c 0 std::_List_const_iterator<std::_List_val<std::_List_simple_types<google_breakpad::AppMemory> > >::operator=(std::_List_const_iterator<std::_List_val<std::_List_simple_types<google_breakpad::AppMemory> > > &&)
FUNC bd90 19 0 void std::_List_iterator<std::_List_val<std::_List_simple_types<google_breakpad::AppMemory> > >::~_List_iterator()
FUNC bdb0 3b 0 std::list<google_breakpad::AppMemory,std::allocator<google_breakpad::AppMemory> >::end()
FUNC bdf0 2c 0 google_breakpad::MinidumpCallbackContext::~MinidumpCallbackContext()
FUNC be20 94 0 std::basic_string<wchar_t,std::char_traits<wchar_t>,std::allocator<wchar_t> >::operator=(std::basic_string<wchar_t,std::char_traits<wchar_t>,std::allocator<wchar_t> > &&)
FUNC bec0 54 0 swprintf_s
FUNC bf20 23 0 std::basic_string<wchar_t,std::char_traits<wchar_t>,std::allocator<wchar_t> >::operator=(wchar_t const * const)
FUNC bf50 121 0 class std::_List_iterator<std::_List_val<std::_List_simple_types<google_breakpad::AppMemory> > > std::find<std::_List_iterator<std::_List_val<std::_List_simple_types<google_breakpad::AppMemory> > >,void *>(class std::_List_iterator<std::_List_val<std::_List_simple_types<google_breakpad::AppMemory> > >, const class std::_List_iterator<std::_List_val<std::_List_simple_types<google_breakpad::AppMemory> > >, void * & const)
FUNC c080 29 0 std::_List_const_iterator<std::_List_val<std::_List_simple_types<google_breakpad::AppMemory> > >::operator!=(std::_List_const_iterator<std::_List_val<std::_List_simple_types<google_breakpad::AppMemory> > > const &)
FUNC c0b0 157 0 std::list<google_breakpad::AppMemory,std::allocator<google_breakpad::AppMemory> >::erase(std::_List_const_iterator<std::_List_val<std::_List_simple_types<google_breakpad::AppMemory> > >)
FUNC c210 2c 0 void std::_List_const_iterator<std::_List_val<std::_List_simple_types<google_breakpad::AppMemory> > >::_List_const_iterator(const class std::_List_const_iterator<std::_List_val<std::_List_simple_types<google_breakpad::AppMemory> > > & const)
FUNC c240 9d 0 std::basic_string<wchar_t,std::char_traits<wchar_t>,std::allocator<wchar_t> >::operator=(std::basic_string<wchar_t,std::char_traits<wchar_t>,std::allocator<wchar_t> > const &)
FUNC c2e0 12 0 std::_Pocca<std::allocator<wchar_t> >(std::allocator<wchar_t> &,std::allocator<wchar_t> const &)
FUNC c300 b8 0 std::basic_string<wchar_t,std::char_traits<wchar_t>,std::allocator<wchar_t> >::assign(wchar_t const * const,unsigned __int64)
FUNC c3c0 16e 0 class std::basic_string<wchar_t,std::char_traits<wchar_t>,std::allocator<wchar_t> > & const std::basic_string<wchar_t,std::char_traits<wchar_t>,std::allocator<wchar_t> >::_Reallocate_for<`lambda at C:\Program Files\Microsoft Visual Studio\2022\Community\VC\Tools\MSVC\14.36.32532\include\xstring:3425:13',const wchar_t *>(const unsigned __int64, class std::basic_string<wchar_t,std::char_traits<wchar_t>,std::allocator<wchar_t> >::assign::<lambda_1>, const wchar_t *)
FUNC c530 53 0 void std::basic_string<wchar_t,std::char_traits<wchar_t>,std::allocator<wchar_t> >::assign::<lambda_1>::operator()(wchar_t *, const unsigned __int64, const wchar_t *)
FUNC c590 70 0 vfprintf_l
FUNC c600 8 0 _local_stdio_printf_options
FUNC c610 19 0 void std::_Vector_const_iterator<std::_Vector_val<std::_Simple_types<google_breakpad::ExceptionHandler *> > >::~_Vector_const_iterator()
FUNC c630 19 0 std::_Iterator_base12::~_Iterator_base12()
FUNC c650 3e 0 std::_Iterator_base12::_Orphan_me_locked_v3()
FUNC c690 154 0 std::_Iterator_base12::_Orphan_me_unlocked_v3()
FUNC c7f0 3b 0 std::_Iterator_base12::_Iterator_base12(std::_Iterator_base12 const &)
FUNC c830 2c 0 std::_Iterator_base12::operator=(std::_Iterator_base12 const &)
FUNC c860 48 0 std::_Iterator_base12::_Assign_locked(std::_Iterator_base12 const &)
FUNC c8b0 67 0 std::_Iterator_base12::_Assign_unlocked(std::_Iterator_base12 const &)
FUNC c920 94 0 std::_Iterator_base12::_Adopt_unlocked(std::_Container_base12 const *)
FUNC c9c0 39 0 class std::_Vector_const_iterator<std::_Vector_val<std::_Simple_types<google_breakpad::ExceptionHandler *> > > & const std::_Vector_const_iterator<std::_Vector_val<std::_Simple_types<google_breakpad::ExceptionHandler *> > >::operator=(class std::_Vector_const_iterator<std::_Vector_val<std::_Simple_types<google_breakpad::ExceptionHandler *> > > *)
FUNC ca00 5b 0 class google_breakpad::ExceptionHandler * & const std::vector<google_breakpad::ExceptionHandler *,std::allocator<google_breakpad::ExceptionHandler *> >::at(const unsigned __int64)
FUNC ca60 2e 0 unsigned __int64 std::vector<google_breakpad::ExceptionHandler *,std::allocator<google_breakpad::ExceptionHandler *> >::size()
FUNC ca90 11 0 void std::vector<google_breakpad::ExceptionHandler *,std::allocator<google_breakpad::ExceptionHandler *> >::_Xrange()
FUNC cab0 ee 0 vsnwprintf_s_l
FUNC cba0 19 0 void std::_List_unchecked_const_iterator<std::_List_val<std::_List_simple_types<google_breakpad::AppMemory> >,std::_Iterator_base12>::~_List_unchecked_const_iterator()
FUNC cbc0 22 0 void std::_List_const_iterator<std::_List_val<std::_List_simple_types<google_breakpad::AppMemory> > >::_List_const_iterator()
FUNC cbf0 2a 0 void std::_List_unchecked_const_iterator<std::_List_val<std::_List_simple_types<google_breakpad::AppMemory> >,std::_Iterator_base12>::_List_unchecked_const_iterator()
FUNC cc20 1a 0 std::_Iterator_base12::_Iterator_base12()
FUNC cc40 39 0 std::_List_unchecked_const_iterator<std::_List_val<std::_List_simple_types<google_breakpad::AppMemory> >,std::_Iterator_base12>::operator=(std::_List_unchecked_const_iterator<std::_List_val<std::_List_simple_types<google_breakpad::AppMemory> >,std::_Iterator_base12> &&)
FUNC cc80 c3 0 vswprintf_s_l
FUNC cd50 39 0 void std::_List_unchecked_const_iterator<std::_List_val<std::_List_simple_types<google_breakpad::AppMemory> >,std::_Iterator_base12>::_List_unchecked_const_iterator(const class std::_List_unchecked_const_iterator<std::_List_val<std::_List_simple_types<google_breakpad::AppMemory> >,std::_Iterator_base12> & const)
FUNC cd90 30 0 void std::_Compressed_pair<std::allocator<std::_List_node<google_breakpad::AppMemory,void *> >,std::_List_val<std::_List_simple_types<google_breakpad::AppMemory> >,1>::_Compressed_pair<>(struct std::_Zero_then_variadic_args_t)
FUNC cdc0 f1 0 std::list<google_breakpad::AppMemory,std::allocator<google_breakpad::AppMemory> >::_Alloc_sentinel_and_proxy()
FUNC cec0 b 0 void std::allocator<std::_List_node<google_breakpad::AppMemory,void *> >::allocator()
FUNC ced0 32 0 void std::_List_val<std::_List_simple_types<google_breakpad::AppMemory> >::_List_val()
FUNC cf10 19 0 std::list<google_breakpad::AppMemory,std::allocator<google_breakpad::AppMemory> >::_Getal()
FUNC cf30 16 0 void std::allocator<std::_Container_proxy>::allocator<std::_List_node<google_breakpad::AppMemory,void *> >(const class std::allocator<std::_List_node<google_breakpad::AppMemory,void *> > & const)
FUNC cf50 26 0 struct std::_List_node<google_breakpad::AppMemory,void *> * std::allocator<std::_List_node<google_breakpad::AppMemory,void *> >::allocate(const unsigned __int64)
FUNC cf80 28 0 void std::_Construct_in_place<std::_List_node<google_breakpad::AppMemory,void *> *,std::_List_node<google_breakpad::AppMemory,void *> *&>(struct std::_List_node<google_breakpad::AppMemory,void *> * & const, struct std::_List_node<google_breakpad::AppMemory,void *> * & const)
FUNC cfb0 b 0 class std::allocator<std::_List_node<google_breakpad::AppMemory,void *> > & const std::_Compressed_pair<std::allocator<std::_List_node<google_breakpad::AppMemory,void *> >,std::_List_val<std::_List_simple_types<google_breakpad::AppMemory> >,1>::_Get_first()
FUNC cfc0 45 0 std::_Get_size_of_n<32>(unsigned __int64)
FUNC d010 b 0 void * std::_Voidify_iter<std::_List_node<google_breakpad::AppMemory,void *> **>(struct std::_List_node<google_breakpad::AppMemory,void *> * *)
FUNC d020 60 0 std::list<google_breakpad::AppMemory,std::allocator<google_breakpad::AppMemory> >::_Tidy()
FUNC d080 67 0 void std::_List_node<google_breakpad::AppMemory,void *>::_Free_non_head<std::allocator<std::_List_node<google_breakpad::AppMemory,void *> > >(class std::allocator<std::_List_node<google_breakpad::AppMemory,void *> > & const, struct std::_List_node<google_breakpad::AppMemory,void *> *)
FUNC d0f0 41 0 void std::_List_node<google_breakpad::AppMemory,void *>::_Freenode0<std::allocator<std::_List_node<google_breakpad::AppMemory,void *> > >(class std::allocator<std::_List_node<google_breakpad::AppMemory,void *> > & const, struct std::_List_node<google_breakpad::AppMemory,void *> *)
FUNC d140 36 0 void std::_List_node<google_breakpad::AppMemory,void *>::_Freenode<std::allocator<std::_List_node<google_breakpad::AppMemory,void *> > >(class std::allocator<std::_List_node<google_breakpad::AppMemory,void *> > & const, struct std::_List_node<google_breakpad::AppMemory,void *> *)
FUNC d180 12 0 void std::_Default_allocator_traits<std::allocator<std::_List_node<google_breakpad::AppMemory,void *> > >::destroy<google_breakpad::AppMemory>(class std::allocator<std::_List_node<google_breakpad::AppMemory,void *> > & const, struct google_breakpad::AppMemory *)
FUNC d1a0 7 0 void std::_Destroy_in_place<std::_List_node<google_breakpad::AppMemory,void *> *>(struct std::_List_node<google_breakpad::AppMemory,void *> * & const)
FUNC d1b0 2c 0 void std::_Default_allocator_traits<std::allocator<std::_List_node<google_breakpad::AppMemory,void *> > >::deallocate(class std::allocator<std::_List_node<google_breakpad::AppMemory,void *> > & const, struct std::_List_node<google_breakpad::AppMemory,void *> *, const unsigned __int64)
FUNC d1e0 ab 0 struct std::_List_node<google_breakpad::AppMemory,void *> * std::list<google_breakpad::AppMemory,std::allocator<google_breakpad::AppMemory> >::_Emplace<const google_breakpad::AppMemory &>(struct std::_List_node<google_breakpad::AppMemory,void *> *, const struct google_breakpad::AppMemory & const)
FUNC d290 41 0 std::list<google_breakpad::AppMemory,std::allocator<google_breakpad::AppMemory> >::max_size()
FUNC d2e0 7e 0 void std::_List_node_emplace_op2<std::allocator<std::_List_node<google_breakpad::AppMemory,void *> > >::_List_node_emplace_op2<const google_breakpad::AppMemory &>(class std::allocator<std::_List_node<google_breakpad::AppMemory,void *> > & const, const struct google_breakpad::AppMemory & const)
FUNC d360 86 0 struct std::_List_node<google_breakpad::AppMemory,void *> * std::_List_node_emplace_op2<std::allocator<std::_List_node<google_breakpad::AppMemory,void *> > >::_Transfer_before(struct std::_List_node<google_breakpad::AppMemory,void *> *)
FUNC d3f0 43 0 void std::_List_node_emplace_op2<std::allocator<std::_List_node<google_breakpad::AppMemory,void *> > >::~_List_node_emplace_op2()
FUNC d440 11 0 unsigned __int64 std::_Default_allocator_traits<std::allocator<std::_List_node<google_breakpad::AppMemory,void *> > >::max_size(const class std::allocator<std::_List_node<google_breakpad::AppMemory,void *> > & const)
FUNC d460 19 0 std::list<google_breakpad::AppMemory,std::allocator<google_breakpad::AppMemory> >::_Getal()
FUNC d480 b 0 const class std::allocator<std::_List_node<google_breakpad::AppMemory,void *> > & const std::_Compressed_pair<std::allocator<std::_List_node<google_breakpad::AppMemory,void *> >,std::_List_val<std::_List_simple_types<google_breakpad::AppMemory> >,1>::_Get_first()
FUNC d490 26 0 void std::_Alloc_construct_ptr<std::allocator<std::_List_node<google_breakpad::AppMemory,void *> > >::_Alloc_construct_ptr(class std::allocator<std::_List_node<google_breakpad::AppMemory,void *> > & const)
FUNC d4c0 39 0 void std::_Alloc_construct_ptr<std::allocator<std::_List_node<google_breakpad::AppMemory,void *> > >::_Allocate()
FUNC d500 35 0 void std::_Default_allocator_traits<std::allocator<std::_List_node<google_breakpad::AppMemory,void *> > >::construct<google_breakpad::AppMemory,const google_breakpad::AppMemory &>(class std::allocator<std::_List_node<google_breakpad::AppMemory,void *> > & const, struct google_breakpad::AppMemory *, const struct google_breakpad::AppMemory & const)
FUNC d540 64 0 void std::_Alloc_construct_ptr<std::allocator<std::_List_node<google_breakpad::AppMemory,void *> > >::~_Alloc_construct_ptr()
FUNC d5b0 b 0 void * std::_Voidify_iter<google_breakpad::AppMemory *>(struct google_breakpad::AppMemory *)
FUNC d5c0 cd 0 void std::allocator<std::_List_node<google_breakpad::AppMemory,void *> >::deallocate(struct std::_List_node<google_breakpad::AppMemory,void *> *, const unsigned __int64)
FUNC d690 28 0 void std::_Construct_in_place<std::_List_node<google_breakpad::AppMemory,void *> *,std::_List_node<google_breakpad::AppMemory,void *> *const &>(struct std::_List_node<google_breakpad::AppMemory,void *> * & const, struct std::_List_node<google_breakpad::AppMemory,void *> * & const)
FUNC d6c0 30 0 void std::_Compressed_pair<std::allocator<google_breakpad::ExceptionHandler *>,std::_Vector_val<std::_Simple_types<google_breakpad::ExceptionHandler *> >,1>::_Compressed_pair<>(struct std::_Zero_then_variadic_args_t)
FUNC d6f0 19 0 class std::allocator<google_breakpad::ExceptionHandler *> & const std::vector<google_breakpad::ExceptionHandler *,std::allocator<google_breakpad::ExceptionHandler *> >::_Getal()
FUNC d710 16 0 void std::allocator<std::_Container_proxy>::allocator<google_breakpad::ExceptionHandler *>(const class std::allocator<google_breakpad::ExceptionHandler *> & const)
FUNC d730 b 0 void std::allocator<google_breakpad::ExceptionHandler *>::allocator()
FUNC d740 3a 0 void std::_Vector_val<std::_Simple_types<google_breakpad::ExceptionHandler *> >::_Vector_val()
FUNC d780 b 0 class std::allocator<google_breakpad::ExceptionHandler *> & const std::_Compressed_pair<std::allocator<google_breakpad::ExceptionHandler *>,std::_Vector_val<std::_Simple_types<google_breakpad::ExceptionHandler *> >,1>::_Get_first()
FUNC d790 81 0 class google_breakpad::ExceptionHandler * & const std::vector<google_breakpad::ExceptionHandler *,std::allocator<google_breakpad::ExceptionHandler *> >::_Emplace_one_at_back<google_breakpad::ExceptionHandler *>(class google_breakpad::ExceptionHandler * *)
FUNC d820 7d 0 class google_breakpad::ExceptionHandler * & const std::vector<google_breakpad::ExceptionHandler *,std::allocator<google_breakpad::ExceptionHandler *> >::_Emplace_back_with_unused_capacity<google_breakpad::ExceptionHandler *>(class google_breakpad::ExceptionHandler * *)
FUNC d8a0 230 0 class google_breakpad::ExceptionHandler * * std::vector<google_breakpad::ExceptionHandler *,std::allocator<google_breakpad::ExceptionHandler *> >::_Emplace_reallocate<google_breakpad::ExceptionHandler *>(class google_breakpad::ExceptionHandler * *, class google_breakpad::ExceptionHandler * *)
FUNC dad0 28 0 void std::_Construct_in_place<google_breakpad::ExceptionHandler *,google_breakpad::ExceptionHandler *>(class google_breakpad::ExceptionHandler * & const, class google_breakpad::ExceptionHandler * *)
FUNC db00 2d 0 void std::vector<google_breakpad::ExceptionHandler *,std::allocator<google_breakpad::ExceptionHandler *> >::_Orphan_range(class google_breakpad::ExceptionHandler * *, class google_breakpad::ExceptionHandler * *)
FUNC db30 b 0 void * std::_Voidify_iter<google_breakpad::ExceptionHandler **>(class google_breakpad::ExceptionHandler * *)
FUNC db40 52 0 void std::vector<google_breakpad::ExceptionHandler *,std::allocator<google_breakpad::ExceptionHandler *> >::_Orphan_range_locked(class google_breakpad::ExceptionHandler * *, class google_breakpad::ExceptionHandler * *)
FUNC dba0 a7 0 void std::vector<google_breakpad::ExceptionHandler *,std::allocator<google_breakpad::ExceptionHandler *> >::_Orphan_range_unlocked(class google_breakpad::ExceptionHandler * *, class google_breakpad::ExceptionHandler * *)
FUNC dc50 41 0 unsigned __int64 std::vector<google_breakpad::ExceptionHandler *,std::allocator<google_breakpad::ExceptionHandler *> >::max_size()
FUNC dca0 11 0 void std::vector<google_breakpad::ExceptionHandler *,std::allocator<google_breakpad::ExceptionHandler *> >::_Xlength()
FUNC dcc0 a6 0 unsigned __int64 std::vector<google_breakpad::ExceptionHandler *,std::allocator<google_breakpad::ExceptionHandler *> >::_Calculate_growth(const unsigned __int64)
FUNC dd70 26 0 class google_breakpad::ExceptionHandler * * std::allocator<google_breakpad::ExceptionHandler *>::allocate(const unsigned __int64)
FUNC dda0 2d 0 void std::_Default_allocator_traits<std::allocator<google_breakpad::ExceptionHandler *> >::construct<google_breakpad::ExceptionHandler *,google_breakpad::ExceptionHandler *>(class std::allocator<google_breakpad::ExceptionHandler *> & const, class google_breakpad::ExceptionHandler * *, class google_breakpad::ExceptionHandler * *)
FUNC ddd0 b 0 class google_breakpad::ExceptionHandler * * std::_Unfancy<google_breakpad::ExceptionHandler *>(class google_breakpad::ExceptionHandler * *)
FUNC dde0 74 0 class google_breakpad::ExceptionHandler * * std::_Uninitialized_move<google_breakpad::ExceptionHandler **,std::allocator<google_breakpad::ExceptionHandler *> >(class google_breakpad::ExceptionHandler * *, class google_breakpad::ExceptionHandler * *, class google_breakpad::ExceptionHandler * *, class std::allocator<google_breakpad::ExceptionHandler *> & const)
FUNC de60 17 0 void std::_Destroy_range<std::allocator<google_breakpad::ExceptionHandler *> >(class google_breakpad::ExceptionHandler * *, class google_breakpad::ExceptionHandler * *, class std::allocator<google_breakpad::ExceptionHandler *> & const)
FUNC de80 cd 0 void std::allocator<google_breakpad::ExceptionHandler *>::deallocate(class google_breakpad::ExceptionHandler * *, const unsigned __int64)
FUNC df50 103 0 void std::vector<google_breakpad::ExceptionHandler *,std::allocator<google_breakpad::ExceptionHandler *> >::_Change_array(class google_breakpad::ExceptionHandler * *, const unsigned __int64, const unsigned __int64)
FUNC e060 11 0 unsigned __int64 std::_Default_allocator_traits<std::allocator<google_breakpad::ExceptionHandler *> >::max_size(const class std::allocator<google_breakpad::ExceptionHandler *> & const)
FUNC e080 19 0 const class std::allocator<google_breakpad::ExceptionHandler *> & const std::vector<google_breakpad::ExceptionHandler *,std::allocator<google_breakpad::ExceptionHandler *> >::_Getal()
FUNC e0a0 b 0 const class std::allocator<google_breakpad::ExceptionHandler *> & const std::_Compressed_pair<std::allocator<google_breakpad::ExceptionHandler *>,std::_Vector_val<std::_Simple_types<google_breakpad::ExceptionHandler *> >,1>::_Get_first()
FUNC e0b0 2e 0 unsigned __int64 std::vector<google_breakpad::ExceptionHandler *,std::allocator<google_breakpad::ExceptionHandler *> >::capacity()
FUNC e0e0 45 0 std::_Get_size_of_n<8>(unsigned __int64)
FUNC e130 e 0 class google_breakpad::ExceptionHandler * * std::_Get_unwrapped<google_breakpad::ExceptionHandler **const &>(class google_breakpad::ExceptionHandler * * & const)
FUNC e140 93 0 class google_breakpad::ExceptionHandler * * std::_Copy_memmove<google_breakpad::ExceptionHandler **,google_breakpad::ExceptionHandler **>(class google_breakpad::ExceptionHandler * *, class google_breakpad::ExceptionHandler * *, class google_breakpad::ExceptionHandler * *)
FUNC e1e0 e 0 class google_breakpad::ExceptionHandler * * std::_To_address<google_breakpad::ExceptionHandler **>(class google_breakpad::ExceptionHandler * * & const)
FUNC e1f0 12 0 void std::_Default_allocator_traits<std::allocator<google_breakpad::ExceptionHandler *> >::destroy<google_breakpad::ExceptionHandler *>(class std::allocator<google_breakpad::ExceptionHandler *> & const, class google_breakpad::ExceptionHandler * *)
FUNC e210 36 0 static void std::_Vector_iterator<std::_Vector_val<std::_Simple_types<google_breakpad::ExceptionHandler *> > >::_Vector_const_iterator(class google_breakpad::ExceptionHandler * *, const struct std::_Container_base12 *)
FUNC e250 44 0 void std::_Vector_const_iterator<std::_Vector_val<std::_Simple_types<google_breakpad::ExceptionHandler *> > >::_Vector_const_iterator(class google_breakpad::ExceptionHandler * *, const struct std::_Container_base12 *)
FUNC e2a0 23 0 std::_Iterator_base12::_Adopt(std::_Container_base12 const *)
FUNC e2d0 48 0 std::_Iterator_base12::_Adopt_locked(std::_Container_base12 const *)
FUNC e320 41 0 bool std::_Vector_const_iterator<std::_Vector_val<std::_Simple_types<google_breakpad::ExceptionHandler *> > >::operator==(const class std::_Vector_const_iterator<std::_Vector_val<std::_Simple_types<google_breakpad::ExceptionHandler *> > > & const)
FUNC e370 f4 0 void std::_Vector_const_iterator<std::_Vector_val<std::_Simple_types<google_breakpad::ExceptionHandler *> > >::_Compat(const class std::_Vector_const_iterator<std::_Vector_val<std::_Simple_types<google_breakpad::ExceptionHandler *> > > & const)
FUNC e470 45 0 std::_Iterator_base12::_Getcont()
FUNC e4c0 244 0 class google_breakpad::ExceptionHandler * & const std::_Vector_const_iterator<std::_Vector_val<std::_Simple_types<google_breakpad::ExceptionHandler *> > >::operator*()
FUNC e710 2d 0 class google_breakpad::ExceptionHandler * * std::_Move_unchecked<google_breakpad::ExceptionHandler **,google_breakpad::ExceptionHandler **>(class google_breakpad::ExceptionHandler * *, class google_breakpad::ExceptionHandler * *, class google_breakpad::ExceptionHandler * *)
FUNC e740 234 0 class std::_Vector_const_iterator<std::_Vector_val<std::_Simple_types<google_breakpad::ExceptionHandler *> > > & const std::_Vector_const_iterator<std::_Vector_val<std::_Simple_types<google_breakpad::ExceptionHandler *> > >::operator++()
FUNC e980 e4 0 void std::vector<google_breakpad::ExceptionHandler *,std::allocator<google_breakpad::ExceptionHandler *> >::_Tidy()
FUNC ea70 2f 0 struct std::_Container_proxy * std::exchange<std::_Container_proxy *,std::nullptr_t>(struct std::_Container_proxy * & const, void * *)
FUNC eaa0 b 0 const struct google_breakpad::AppMemory * std::pointer_traits<const google_breakpad::AppMemory *>::pointer_to(const struct google_breakpad::AppMemory & const)
FUNC eab0 194 0 std::_List_const_iterator<std::_List_val<std::_List_simple_types<google_breakpad::AppMemory> > >::operator*()
FUNC ec50 194 0 std::_List_const_iterator<std::_List_val<std::_List_simple_types<google_breakpad::AppMemory> > >::operator++()
FUNC edf0 36 0 static void std::_List_iterator<std::_List_val<std::_List_simple_types<google_breakpad::AppMemory> > >::_List_unchecked_const_iterator(struct std::_List_node<google_breakpad::AppMemory,void *> *, const class std::_List_val<std::_List_simple_types<google_breakpad::AppMemory> > *)
FUNC ee30 36 0 static void std::_List_const_iterator<std::_List_val<std::_List_simple_types<google_breakpad::AppMemory> > >::_List_unchecked_const_iterator(struct std::_List_node<google_breakpad::AppMemory,void *> *, const class std::_List_val<std::_List_simple_types<google_breakpad::AppMemory> > *)
FUNC ee70 44 0 void std::_List_unchecked_const_iterator<std::_List_val<std::_List_simple_types<google_breakpad::AppMemory> >,std::_Iterator_base12>::_List_unchecked_const_iterator(struct std::_List_node<google_breakpad::AppMemory,void *> *, const class std::_List_val<std::_List_simple_types<google_breakpad::AppMemory> > *)
FUNC eec0 12 0 std::_Pocma<std::allocator<wchar_t> >(std::allocator<wchar_t> &,std::allocator<wchar_t> &)
FUNC eee0 42 0 std::basic_string<wchar_t,std::char_traits<wchar_t>,std::allocator<wchar_t> >::assign(wchar_t const * const)
FUNC ef30 23 0 std::_Adl_verify_range<std::_List_iterator<std::_List_val<std::_List_simple_types<google_breakpad::AppMemory> > >,std::_List_iterator<std::_List_val<std::_List_simple_types<google_breakpad::AppMemory> > > >(std::_List_iterator<std::_List_val<std::_List_simple_types<google_breakpad::AppMemory> > > const &,std::_List_iterator<std::_List_val<std::_List_simple_types<google_breakpad::AppMemory> > > const &)
FUNC ef60 30 0 std::_Seek_wrapped<std::_List_iterator<std::_List_val<std::_List_simple_types<google_breakpad::AppMemory> > >,std::_List_unchecked_iterator<std::_List_val<std::_List_simple_types<google_breakpad::AppMemory> > > >(std::_List_iterator<std::_List_val<std::_List_simple_types<google_breakpad::AppMemory> > > &,std::_List_unchecked_iterator<std::_List_val<std::_List_simple_types<google_breakpad::AppMemory> > > &&)
FUNC ef90 98 0 class std::_List_unchecked_iterator<std::_List_val<std::_List_simple_types<google_breakpad::AppMemory> > > std::_Find_unchecked<std::_List_unchecked_iterator<std::_List_val<std::_List_simple_types<google_breakpad::AppMemory> > >,void *>(class std::_List_unchecked_iterator<std::_List_val<std::_List_simple_types<google_breakpad::AppMemory> > >, const class std::_List_unchecked_iterator<std::_List_val<std::_List_simple_types<google_breakpad::AppMemory> > >, void * & const)
FUNC f030 30 0 class std::_List_unchecked_iterator<std::_List_val<std::_List_simple_types<google_breakpad::AppMemory> > > std::_Get_unwrapped<const std::_List_iterator<std::_List_val<std::_List_simple_types<google_breakpad::AppMemory> > > &>(const class std::_List_iterator<std::_List_val<std::_List_simple_types<google_breakpad::AppMemory> > > & const)
FUNC f060 30 0 class std::_List_unchecked_iterator<std::_List_val<std::_List_simple_types<google_breakpad::AppMemory> > > std::_Get_unwrapped<std::_List_iterator<std::_List_val<std::_List_simple_types<google_breakpad::AppMemory> > > &>(class std::_List_iterator<std::_List_val<std::_List_simple_types<google_breakpad::AppMemory> > > & const)
FUNC f090 2c 0 void std::_List_iterator<std::_List_val<std::_List_simple_types<google_breakpad::AppMemory> > >::_List_iterator(class std::_List_iterator<std::_List_val<std::_List_simple_types<google_breakpad::AppMemory> > > *)
FUNC f0c0 f4 0 std::_Verify_range(std::_List_const_iterator<std::_List_val<std::_List_simple_types<google_breakpad::AppMemory> > > const &,std::_List_const_iterator<std::_List_val<std::_List_simple_types<google_breakpad::AppMemory> > > const &)
FUNC f1c0 1f 0 std::_List_const_iterator<std::_List_val<std::_List_simple_types<google_breakpad::AppMemory> > >::_Seek_to(std::_List_unchecked_const_iterator<std::_List_val<std::_List_simple_types<google_breakpad::AppMemory> >,std::_Iterator_base0>)
FUNC f1e0 29 0 std::_List_unchecked_const_iterator<std::_List_val<std::_List_simple_types<google_breakpad::AppMemory> >,std::_Iterator_base0>::operator!=(std::_List_unchecked_const_iterator<std::_List_val<std::_List_simple_types<google_breakpad::AppMemory> >,std::_Iterator_base0> const &)
FUNC f210 19 0 std::_List_unchecked_iterator<std::_List_val<std::_List_simple_types<google_breakpad::AppMemory> > >::operator*()
FUNC f230 29 0 google_breakpad::AppMemory::operator==(void const *)
FUNC f260 22 0 std::_List_unchecked_iterator<std::_List_val<std::_List_simple_types<google_breakpad::AppMemory> > >::operator++()
FUNC f290 29 0 std::_List_unchecked_const_iterator<std::_List_val<std::_List_simple_types<google_breakpad::AppMemory> >,std::_Iterator_base0>::operator==(std::_List_unchecked_const_iterator<std::_List_val<std::_List_simple_types<google_breakpad::AppMemory> >,std::_Iterator_base0> const &)
FUNC f2c0 12 0 std::_List_unchecked_const_iterator<std::_List_val<std::_List_simple_types<google_breakpad::AppMemory> >,std::_Iterator_base0>::operator*()
FUNC f2e0 14 0 std::_List_unchecked_const_iterator<std::_List_val<std::_List_simple_types<google_breakpad::AppMemory> >,std::_Iterator_base0>::operator++()
FUNC f300 4a 0 std::_List_iterator<std::_List_val<std::_List_simple_types<google_breakpad::AppMemory> > >::_Unwrapped()
FUNC f350 36 0 static void std::_List_unchecked_iterator<std::_List_val<std::_List_simple_types<google_breakpad::AppMemory> > >::_List_unchecked_const_iterator(struct std::_List_node<google_breakpad::AppMemory,void *> *, const class std::_List_val<std::_List_simple_types<google_breakpad::AppMemory> > *)
FUNC f390 39 0 void std::_List_unchecked_const_iterator<std::_List_val<std::_List_simple_types<google_breakpad::AppMemory> >,std::_Iterator_base0>::_List_unchecked_const_iterator(struct std::_List_node<google_breakpad::AppMemory,void *> *, const class std::_List_val<std::_List_simple_types<google_breakpad::AppMemory> > *)
FUNC f3d0 12 0 std::_Iterator_base0::_Adopt(void const *)
FUNC f3f0 2c 0 void std::_List_const_iterator<std::_List_val<std::_List_simple_types<google_breakpad::AppMemory> > >::_List_const_iterator(class std::_List_const_iterator<std::_List_val<std::_List_simple_types<google_breakpad::AppMemory> > > *)
FUNC f420 39 0 void std::_List_unchecked_const_iterator<std::_List_val<std::_List_simple_types<google_breakpad::AppMemory> >,std::_Iterator_base12>::_List_unchecked_const_iterator(class std::_List_unchecked_const_iterator<std::_List_val<std::_List_simple_types<google_breakpad::AppMemory> >,std::_Iterator_base12> *)
FUNC f460 66 0 std::_List_val<std::_List_simple_types<google_breakpad::AppMemory> >::_Unlinknode(std::_List_node<google_breakpad::AppMemory,void *> *)
FUNC f4d0 41 0 std::list<google_breakpad::AppMemory,std::allocator<google_breakpad::AppMemory> >::_Make_iter(std::_List_node<google_breakpad::AppMemory,void *> *)
FUNC f520 d7 0 std::_List_val<std::_List_simple_types<google_breakpad::AppMemory> >::_Orphan_ptr2(std::_List_node<google_breakpad::AppMemory,void *> *)
FUNC f600 c9 0 google_breakpad::CrashGenerationClient::CrashGenerationClient(wchar_t const *,_MINIDUMP_TYPE,google_breakpad::CustomClientInfo const *)
FUNC f6d0 c5 0 google_breakpad::CrashGenerationClient::CrashGenerationClient(void *,_MINIDUMP_TYPE,google_breakpad::CustomClientInfo const *)
FUNC f7a0 c4 0 google_breakpad::CrashGenerationClient::~CrashGenerationClient()
FUNC f870 8c 0 google_breakpad::CrashGenerationClient::Register()
FUNC f900 18 0 google_breakpad::CrashGenerationClient::IsRegistered()
FUNC f920 a1 0 google_breakpad::CrashGenerationClient::ConnectToServer()
FUNC f9d0 206 0 google_breakpad::CrashGenerationClient::RegisterClient(void *)
FUNC fbe0 127 0 google_breakpad::CrashGenerationClient::RequestUpload(unsigned long)
FUNC fd10 115 0 google_breakpad::CrashGenerationClient::ConnectToPipe(wchar_t const *,unsigned long,unsigned long)
FUNC fe30 82 0 google_breakpad::CrashGenerationClient::ValidateResponse(google_breakpad::ProtocolMessage const &)
FUNC fec0 b0 0 google_breakpad::CrashGenerationClient::RequestDump(_EXCEPTION_POINTERS *,MDRawAssertionInfo *)
FUNC ff70 120 0 google_breakpad::CrashGenerationClient::SignalCrashEventAndWait()
FUNC 10090 2c 0 google_breakpad::CrashGenerationClient::RequestDump(_EXCEPTION_POINTERS *)
FUNC 100c0 2b 0 google_breakpad::CrashGenerationClient::RequestDump(MDRawAssertionInfo *)
FUNC 100f0 161 0 google_breakpad::CrashGenerationClient::DuplicatePipeToClientProcess(wchar_t const *,void *)
FUNC 10260 a0 0 google_breakpad::ProtocolMessage::ProtocolMessage(google_breakpad::MessageTag,unsigned long,_MINIDUMP_TYPE,unsigned long *,_EXCEPTION_POINTERS * *,MDRawAssertionInfo *,google_breakpad::CustomClientInfo const &,void *,void *,void *)
FUNC 10300 72 0 google_breakpad::ProtocolMessage::ProtocolMessage()
FUNC 10380 124 0 google_breakpad::GUIDString::GUIDToWString(_GUID *)
FUNC 104b0 124 0 google_breakpad::GUIDString::GUIDToSymbolServerWString(_GUID *)
FUNC 105e0 15 0 static void std::`dynamic atexit destructor for '_Fac_tidy_reg''()
FUNC 10600 50 0 operator new(unsigned __int64)
FUNC 10650 1d 0 operator delete(void *)
FUNC 10670 1d 0 operator delete(void *,unsigned __int64)
FUNC 10690 15 0 type_info::~type_info()
FUNC 106b0 3b 0 type_info::`scalar deleting destructor'(unsigned int)
FUNC 106f0 33 0 atexit
FUNC 10730 7d 0 onexit
FUNC 107b0 4b 0 at_quick_exit
FUNC 10800 a 0 NtCurrentTeb
FUNC 10810 8b 0 _scrt_is_nonwritable_in_current_image
FUNC 108a0 62 0 _scrt_acquire_startup_lock
FUNC 10910 2f 0 _scrt_release_startup_lock
FUNC 10940 49 0 _scrt_initialize_crt
FUNC 10990 3f 0 _scrt_uninitialize_crt
FUNC 109d0 104 0 _scrt_initialize_onexit_tables
FUNC 10ae0 65 0 _scrt_dllmain_exception_filter
FUNC 10b50 1d 0 _scrt_dllmain_before_initialize_c
FUNC 10b70 2d 0 _scrt_dllmain_after_initialize_c
FUNC 10ba0 2e 0 _scrt_dllmain_uninitialize_c
FUNC 10bd0 15 0 _scrt_dllmain_uninitialize_critical
FUNC 10bf0 30 0 _scrt_dllmain_crt_thread_attach
FUNC 10c20 15 0 _scrt_dllmain_crt_thread_detach
FUNC 10c40 15 0 __scrt_narrow_argv_policy::configure_argv()
FUNC 10c60 e 0 __scrt_narrow_environment_policy::initialize_environment()
FUNC 10c70 8a 0 static bool is_potentially_valid_image_base(void *)
FUNC 10d00 c6 0 static struct _IMAGE_SECTION_HEADER * find_pe_section(unsigned char *, const unsigned __int64)
FUNC 10dd0 6 0 __empty_global_delete(void *)
FUNC 10de0 b 0 __empty_global_delete(void *,unsigned __int64)
FUNC 10df0 b 0 __empty_global_delete(void *,std::align_val_t)
FUNC 10e00 10 0 __empty_global_delete(void *,unsigned __int64,std::align_val_t)
FUNC 10e10 61 0 std::_Facet_Register(std::_Facet_base *)
FUNC 10e80 30 0 std::_Fac_node::_Fac_node(std::_Fac_node *,std::_Facet_base *)
FUNC 10eb0 83 0 std::_Fac_node::~_Fac_node()
FUNC 10f40 5f 0 std::_Fac_node::operator new(unsigned __int64)
FUNC 10fa0 1e 0 std::_Fac_node::operator delete(void *)
FUNC 10fc0 52 0 std::_Fac_node::`scalar deleting destructor'(unsigned int)
FUNC 11020 66 0 std::_Fac_tidy_reg_t::~_Fac_tidy_reg_t()
FUNC 11090 39 0 std::bad_alloc::bad_alloc()
FUNC 110d0 24 0 __scrt_throw_std_bad_alloc()
FUNC 11100 24 0 __scrt_throw_std_bad_array_new_length()
FUNC 11130 3a5 0 _isa_available_init
FUNC 114e0 6 0 get_startup_argv_mode
FUNC 114f0 25 0 _scrt_is_ucrt_dll_in_use
FUNC 11520 f 0 _crt_debugger_hook
FUNC 11530 51 0 _scrt_get_show_window_mode
FUNC 11590 a6 0 _scrt_is_managed_app
FUNC 11640 3 0 _scrt_initialize_winrt
FUNC 11650 e 0 _scrt_initialize_mta
FUNC 11660 16 0 _scrt_set_unhandled_exception_filter
FUNC 11680 192 0 _scrt_fastfail
FUNC 11820 3 0 _scrt_stub_for_initialize_mta
FUNC 11830 9a 0 _scrt_unhandled_exception_filter
FUNC 118d0 6 0 guard_check_icall_nop
FUNC 118e0 1e 0 ReadNoFence64
FUNC 11900 18 0 ReadPointerNoFence
FUNC 11920 25 0 _castguard_set_user_handler
FUNC 11950 37 0 guard_icall_checks_enforced
FUNC 11990 3 0 guard_rf_checks_enforced
FUNC 119a0 6b 0 static int __castguard_compat_check(void *)
FUNC 11a10 28 0 static void __castguard_check_failure_os_handled_wrapper(void *)
FUNC 11a40 3c 0 static void __castguard_check_failure_user_handled_wrapper(void *)
FUNC 11a80 6 0 _castguard_check_failure_nop
FUNC 11a90 1d 0 _castguard_check_failure_debugbreak
FUNC 11ab0 23 0 _castguard_check_failure_fastfail
FUNC 11ae0 26 0 _castguard_check_failure_os_handled
FUNC 11b10 26 0 _castguard_check_failure_user_handled
FUNC 11b40 69 0 static int __castguard_slow_path_compat_check(void *, unsigned __int64, unsigned __int64)
FUNC 11bb0 3f 0 _castguard_slow_path_check_debugbreak
FUNC 11bf0 45 0 _castguard_slow_path_check_fastfail
FUNC 11c40 10 0 _castguard_slow_path_check_nop
FUNC 11c50 48 0 _castguard_slow_path_check_os_handled
FUNC 11ca0 48 0 _castguard_slow_path_check_user_handled
FUNC 11cf0 f8 0 _GSHandlerCheckCommon
FUNC 11df0 3a 0 _GSHandlerCheck
FUNC 11e40 1e 0 _security_check_cookie
FUNC 11e60 9c 0 _report_securityfailure
FUNC 11f00 10f 0 _report_securityfailureEx
FUNC 12010 13 0 _report_rangecheckfailure
FUNC 12030 d2 0 _report_gsfailure
FUNC 12110 91 0 static void capture_current_context(struct _CONTEXT *)
FUNC 121b0 b2 0 static void capture_previous_context(struct _CONTEXT *)
FUNC 12270 35 0 _raise_securityfailure
FUNC 122b0 13a 0 static int dllmain_crt_process_attach(struct HINSTANCE__ *, void *)
FUNC 123f0 93 0 static int dllmain_crt_process_detach(const bool)
FUNC 12490 87 0 static int dllmain_crt_dispatch(struct HINSTANCE__ *, const unsigned long, void *)
FUNC 12520 2a 0 CRT_INIT
FUNC 12550 57 0 static int dllmain_raw(struct HINSTANCE__ *, const unsigned long, void *)
FUNC 125b0 135 0 static int dllmain_dispatch(struct HINSTANCE__ *, const unsigned long, void *)
FUNC 126f0 36 0 DllMainCRTStartup
FUNC 12730 74 0 _security_init_cookie
FUNC 127b0 be 0 static unsigned __int64 __get_entropy()
FUNC 12870 38 0 DllMain
FUNC 128b0 16 0 __scrt_initialize_type_info()
FUNC 128d0 15 0 __scrt_uninitialize_type_info()
FUNC 128f0 45 0 _scrt_initialize_default_local_stdio_options
FUNC 12940 8 0 _local_stdio_scanf_options
FUNC 12950 8 0 _scrt_get_dyn_tls_init_callback
FUNC 12960 42 0 RTC_Initialize
FUNC 129b0 42 0 RTC_Terminate
FUNC 12a00 3 0 _scrt_stub_for_acrt_initialize
FUNC 12a10 7 0 _scrt_stub_for_acrt_uninitialize
FUNC 12a20 7 0 _scrt_stub_for_acrt_uninitialize_critical
FUNC 12a30 3 0 _scrt_stub_for_acrt_thread_attach
FUNC 12a40 3 0 _scrt_stub_for_acrt_thread_detach
FUNC 12a50 3 0 _scrt_stub_for_is_c_termination_complete
FUNC 12a70 2 0 guard_dispatch_icall_nop
FUNC 12a90 6 0 guard_xfg_dispatch_icall_nop
FUNC 12aa0 3d 0 static  __scrt_is_nonwritable_in_current_image$filt$0()
FUNC 12ae0 18 0 static  `std::_Facet_Register'::`1'::dtor$0()
FUNC 12b00 1a 0 static  `dllmain_crt_process_attach'::`1'::fin$0()
FUNC 12b20 1a 0 static  `dllmain_crt_process_detach'::`1'::fin$0()
FUNC 12b3a 16 0 static  `dllmain_crt_process_detach'::`1'::fin$1()
FUNC 12b50 48 0 static  `dllmain_dispatch'::`1'::filt$0()
FUNC 12ba0 15 0 static void std::`dynamic atexit destructor for '_Fac_tidy_reg''()
PUBLIC 12bc0 0 std::locale::facet::_Decref()
PUBLIC 12bd0 0 std::locale::_Getgloballocale()
PUBLIC 12be0 0 std::locale::facet::_Incref()
PUBLIC 12bf0 0 std::locale::_Init(bool)
PUBLIC 12c00 0 std::_Xbad_alloc()
PUBLIC 12c10 0 std::_Xlength_error(char const *)
PUBLIC 12c20 0 std::uncaught_exceptions()
PUBLIC 12c30 0 std::codecvt<wchar_t,char,_Mbstatet>::codecvt<wchar_t,char,_Mbstatet>(unsigned __int64)
PUBLIC 12c40 0 std::_Lockit::_Lockit(int)
PUBLIC 12c50 0 std::codecvt<wchar_t,char,_Mbstatet>::~codecvt<wchar_t,char,_Mbstatet>()
PUBLIC 12c60 0 std::_Lockit::~_Lockit()
PUBLIC 12c70 0 std::_Crt_new_delete::operator new(unsigned __int64)
PUBLIC 12c80 0 std::_Crt_new_delete::operator delete(void *)
PUBLIC 12c90 0 std::_Yarn<char>::operator=(char const *)
PUBLIC 12ca0 0 std::basic_ostream<wchar_t,std::char_traits<wchar_t> >::operator<<(std::basic_ostream<wchar_t,std::char_traits<wchar_t> > & )
PUBLIC 12cb0 0 std::locale::id::operator unsigned __int64()
PUBLIC 12cc0 0 std::locale::_Locimp::_Addfac(std::locale::facet *,unsigned __int64)
PUBLIC 12cd0 0 std::ctype<wchar_t>::_Getcat(std::locale::facet const * *,std::locale const *)
PUBLIC 12ce0 0 std::_Locinfo::_Getcvt()
PUBLIC 12cf0 0 std::locale::_Locimp::_New_Locimp(std::locale::_Locimp const &)
PUBLIC 12d00 0 std::basic_ostream<wchar_t,std::char_traits<wchar_t> >::_Osfx()
PUBLIC 12d10 0 std::_Locinfo::_W_Getdays()
PUBLIC 12d20 0 std::_Locinfo::_W_Getmonths()
PUBLIC 12d30 0 std::basic_ios<wchar_t,std::char_traits<wchar_t> >::fill()
PUBLIC 12d40 0 std::ios_base::flags()
PUBLIC 12d50 0 std::basic_ostream<wchar_t,std::char_traits<wchar_t> >::flush()
PUBLIC 12d60 0 std::ios_base::getloc()
PUBLIC 12d70 0 std::ios_base::good()
PUBLIC 12d80 0 std::codecvt<wchar_t,char,_Mbstatet>::out(_Mbstatet &,wchar_t const *,wchar_t const *,wchar_t const * &,char *,char *,char * &)
PUBLIC 12d90 0 std::basic_ostream<wchar_t,std::char_traits<wchar_t> >::put(wchar_t)
PUBLIC 12da0 0 std::basic_ios<wchar_t,std::char_traits<wchar_t> >::rdbuf()
PUBLIC 12db0 0 std::basic_ios<wchar_t,std::char_traits<wchar_t> >::setstate(int,bool)
PUBLIC 12dc0 0 std::basic_streambuf<wchar_t,std::char_traits<wchar_t> >::sputc(wchar_t)
PUBLIC 12dd0 0 std::basic_streambuf<wchar_t,std::char_traits<wchar_t> >::sputn(wchar_t const *,__int64)
PUBLIC 12de0 0 std::basic_ios<wchar_t,std::char_traits<wchar_t> >::tie()
PUBLIC 12df0 0 std::basic_ios<wchar_t,std::char_traits<wchar_t> >::widen(char)
PUBLIC 12e00 0 std::ctype<wchar_t>::widen(char)
PUBLIC 12e10 0 std::ios_base::width(__int64)
PUBLIC 12e20 0 std::ios_base::width()
PUBLIC 12e30 0 InitializeCriticalSection
PUBLIC 12e40 0 CreateSemaphoreW
PUBLIC 12e50 0 CreateThread
PUBLIC 12e60 0 LoadLibraryW
PUBLIC 12e70 0 GetProcAddress
PUBLIC 12e80 0 EnterCriticalSection
PUBLIC 12e90 0 SetUnhandledExceptionFilter
PUBLIC 12ea0 0 LeaveCriticalSection
PUBLIC 12eb0 0 WaitForSingleObject
PUBLIC 12ec0 0 ReleaseSemaphore
PUBLIC 12ed0 0 GetCurrentThreadId
PUBLIC 12ee0 0 RtlCaptureContext
PUBLIC 12ef0 0 FreeLibrary
PUBLIC 12f00 0 TerminateThread
PUBLIC 12f10 0 CloseHandle
PUBLIC 12f20 0 DeleteCriticalSection
PUBLIC 12f30 0 GetCurrentProcess
PUBLIC 12f40 0 OpenThread
PUBLIC 12f50 0 SuspendThread
PUBLIC 12f60 0 GetThreadContext
PUBLIC 12f70 0 ResumeThread
PUBLIC 12f80 0 CreateFileW
PUBLIC 12f90 0 VirtualQueryEx
PUBLIC 12fa0 0 GetProcessId
PUBLIC 12fb0 0 std::_Xout_of_range(char const *)
PUBLIC 12fc0 0 SetNamedPipeHandleState
PUBLIC 12fd0 0 GetCurrentProcessId
PUBLIC 12fe0 0 TransactNamedPipe
PUBLIC 12ff0 0 WriteFile
PUBLIC 13000 0 GetLastError
PUBLIC 13010 0 WaitNamedPipeW
PUBLIC 13020 0 ResetEvent
PUBLIC 13030 0 SetEvent
PUBLIC 13040 0 WaitForMultipleObjects
PUBLIC 13050 0 DuplicateHandle
PUBLIC 13060 0 RtlLookupFunctionEntry
PUBLIC 13070 0 RtlVirtualUnwind
PUBLIC 13080 0 IsDebuggerPresent
PUBLIC 13090 0 UnhandledExceptionFilter
PUBLIC 130a0 0 GetStartupInfoW
PUBLIC 130b0 0 IsProcessorFeaturePresent
PUBLIC 130c0 0 GetModuleHandleW
PUBLIC 130d0 0 TerminateProcess
PUBLIC 130e0 0 QueryPerformanceCounter
PUBLIC 130f0 0 GetSystemTimeAsFileTime
PUBLIC 13100 0 DisableThreadLibraryCalls
PUBLIC 13110 0 InitializeSListHead
PUBLIC 13120 0 CxxThrowException
PUBLIC 13130 0 _C_specific_handler
PUBLIC 13140 0 _CxxFrameHandler3
PUBLIC 13150 0 _CxxFrameHandler4
PUBLIC 13160 0 _current_exception
PUBLIC 13170 0 _current_exception_context
PUBLIC 13180 0 _std_exception_copy
PUBLIC 13190 0 _std_exception_destroy
PUBLIC 131a0 0 _std_terminate
PUBLIC 131b0 0 _std_type_info_destroy_list
PUBLIC 131c0 0 set_purecall_handler
PUBLIC 131d0 0 memcpy
PUBLIC 131e0 0 memmove
PUBLIC 131f0 0 memset
PUBLIC 13200 0 CrtDbgReport
PUBLIC 13210 0 _acrt_iob_func
PUBLIC 13220 0 _stdio_common_vfprintf
PUBLIC 13230 0 _stdio_common_vsnwprintf_s
PUBLIC 13240 0 _stdio_common_vswprintf_s
PUBLIC 13250 0 calloc_dbg
PUBLIC 13260 0 free_dbg
PUBLIC 13270 0 invalid_parameter
PUBLIC 13280 0 malloc_dbg
PUBLIC 13290 0 set_invalid_parameter_handler
PUBLIC 132a0 0 wassert
PUBLIC 132b0 0 abort
PUBLIC 132c0 0 exit
PUBLIC 132d0 0 callnewh
PUBLIC 132e0 0 cexit
PUBLIC 132f0 0 configure_narrow_argv
PUBLIC 13300 0 crt_at_quick_exit
PUBLIC 13310 0 crt_atexit
PUBLIC 13320 0 execute_onexit_table
PUBLIC 13330 0 initialize_narrow_environment
PUBLIC 13340 0 initialize_onexit_table
PUBLIC 13350 0 initterm
PUBLIC 13360 0 initterm_e
PUBLIC 13370 0 register_onexit_function
PUBLIC 13380 0 seh_filter_dll
PUBLIC 13390 0 malloc
PUBLIC 133a0 0 strlen
PUBLIC 133b0 0 terminate
PUBLIC 133c0 0 wcslen
STACK CFI INIT 1000 16 .cfa: $rsp .ra: .cfa 8 - ^
STACK CFI 1000 .cfa: $rsp 48 +
STACK CFI INIT 1020 16 .cfa: $rsp .ra: .cfa 8 - ^
STACK CFI 1020 .cfa: $rsp 48 +
STACK CFI INIT 1040 d4 .cfa: $rsp .ra: .cfa 8 - ^
STACK CFI 1040 .cfa: $rsp 192 +
STACK CFI INIT 1120 21 .cfa: $rsp .ra: .cfa 8 - ^
STACK CFI 1120 .cfa: $rsp 64 +
STACK CFI INIT 1150 1f1 .cfa: $rsp .ra: .cfa 8 - ^
STACK CFI 1150 .cfa: $rsp 496 +
STACK CFI INIT 1350 24 .cfa: $rsp .ra: .cfa 8 - ^
STACK CFI 1350 .cfa: $rsp 48 +
STACK CFI INIT 1380 21 .cfa: $rsp .ra: .cfa 8 - ^
STACK CFI 1380 .cfa: $rsp 48 +
STACK CFI INIT 13b0 21 .cfa: $rsp .ra: .cfa 8 - ^
STACK CFI 13b0 .cfa: $rsp 48 +
STACK CFI INIT 13e0 21 .cfa: $rsp .ra: .cfa 8 - ^
STACK CFI 13e0 .cfa: $rsp 48 +
STACK CFI INIT 1410 24 .cfa: $rsp .ra: .cfa 8 - ^
STACK CFI 1410 .cfa: $rsp 48 +
STACK CFI INIT 1440 24 .cfa: $rsp .ra: .cfa 8 - ^
STACK CFI 1440 .cfa: $rsp 48 +
STACK CFI INIT 1470 24 .cfa: $rsp .ra: .cfa 8 - ^
STACK CFI 1470 .cfa: $rsp 48 +
STACK CFI INIT 14a0 1d .cfa: $rsp .ra: .cfa 8 - ^
STACK CFI 14a0 .cfa: $rsp 48 +
STACK CFI INIT 14c0 15 .cfa: $rsp .ra: .cfa 8 - ^
STACK CFI 14c0 .cfa: $rsp 16 +
STACK CFI INIT 14e0 27 .cfa: $rsp .ra: .cfa 8 - ^
STACK CFI 14e0 .cfa: $rsp 64 +
STACK CFI INIT 1510 b .cfa: $rsp .ra: .cfa 8 - ^
STACK CFI 1510 .cfa: $rsp 48 +
STACK CFI INIT 1520 f .cfa: $rsp .ra: .cfa 8 - ^
STACK CFI 1520 .cfa: $rsp 48 +
STACK CFI INIT 1530 3d .cfa: $rsp .ra: .cfa 8 - ^
STACK CFI 1530 .cfa: $rsp 64 +
STACK CFI INIT 1570 b .cfa: $rsp .ra: .cfa 8 - ^
STACK CFI 1570 .cfa: $rsp 16 +
STACK CFI INIT 1580 f8 .cfa: $rsp .ra: .cfa 8 - ^
STACK CFI 1580 .cfa: $rsp 160 +
STACK CFI INIT 1680 21 .cfa: $rsp .ra: .cfa 8 - ^
STACK CFI 1680 .cfa: $rsp 48 +
STACK CFI INIT 16b0 8d .cfa: $rsp .ra: .cfa 8 - ^
STACK CFI 16b0 .cfa: $rsp 128 +
STACK CFI INIT 1740 1e .cfa: $rsp .ra: .cfa 8 - ^
STACK CFI 1740 .cfa: $rsp 64 +
STACK CFI INIT 1760 58 .cfa: $rsp .ra: .cfa 8 - ^
STACK CFI 1760 .cfa: $rsp 64 +
STACK CFI INIT 17c0 6c .cfa: $rsp .ra: .cfa 8 - ^
STACK CFI 17c0 .cfa: $rsp 80 +
STACK CFI INIT 1830 36 .cfa: $rsp .ra: .cfa 8 - ^
STACK CFI 1830 .cfa: $rsp 64 +
STACK CFI INIT 1870 36 .cfa: $rsp .ra: .cfa 8 - ^
STACK CFI 1870 .cfa: $rsp 64 +
STACK CFI INIT 18b0 56 .cfa: $rsp .ra: .cfa 8 - ^
STACK CFI 18b0 .cfa: $rsp 80 +
STACK CFI INIT 1910 14 .cfa: $rsp .ra: .cfa 8 - ^
STACK CFI 1910 .cfa: $rsp 48 +
STACK CFI INIT 1930 19 .cfa: $rsp .ra: .cfa 8 - ^
STACK CFI 1930 .cfa: $rsp 48 +
STACK CFI INIT 1950 a1 .cfa: $rsp .ra: .cfa 8 - ^
STACK CFI 1950 .cfa: $rsp 128 +
STACK CFI INIT 1a00 75 .cfa: $rsp .ra: .cfa 8 - ^
STACK CFI 1a00 .cfa: $rsp 80 +
STACK CFI INIT 1a80 a1 .cfa: $rsp .ra: .cfa 8 - ^
STACK CFI 1a80 .cfa: $rsp 128 +
STACK CFI INIT 1b30 2b .cfa: $rsp .ra: .cfa 8 - ^
STACK CFI 1b30 .cfa: $rsp 80 +
STACK CFI INIT 1b60 29 .cfa: $rsp .ra: .cfa 8 - ^
STACK CFI 1b60 .cfa: $rsp 64 +
STACK CFI INIT 1b90 e .cfa: $rsp .ra: .cfa 8 - ^
STACK CFI 1b90 .cfa: $rsp 16 +
STACK CFI INIT 1ba0 6a .cfa: $rsp .ra: .cfa 8 - ^
STACK CFI 1ba0 .cfa: $rsp 80 +
STACK CFI INIT 1c10 19 .cfa: $rsp .ra: .cfa 8 - ^
STACK CFI 1c10 .cfa: $rsp 48 +
STACK CFI INIT 1c30 16 .cfa: $rsp .ra: .cfa 8 - ^
STACK CFI 1c30 .cfa: $rsp 24 +
STACK CFI INIT 1c50 57 .cfa: $rsp .ra: .cfa 8 - ^
STACK CFI 1c50 .cfa: $rsp 64 +
STACK CFI INIT 1cb0 1e .cfa: $rsp .ra: .cfa 8 - ^
STACK CFI 1cb0 .cfa: $rsp 24 +
STACK CFI INIT 1cd0 b .cfa: $rsp .ra: .cfa 8 - ^
STACK CFI 1cd0 .cfa: $rsp 16 +
STACK CFI INIT 1ce0 1e6 .cfa: $rsp .ra: .cfa 8 - ^
STACK CFI 1ce0 .cfa: $rsp 224 +
STACK CFI INIT 1ed0 21 .cfa: $rsp .ra: .cfa 8 - ^
STACK CFI 1ed0 .cfa: $rsp 48 +
STACK CFI INIT 1f00 19 .cfa: $rsp .ra: .cfa 8 - ^
STACK CFI 1f00 .cfa: $rsp 48 +
STACK CFI INIT 1f20 40 .cfa: $rsp .ra: .cfa 8 - ^
STACK CFI 1f20 .cfa: $rsp 64 +
STACK CFI INIT 1f60 12 .cfa: $rsp .ra: .cfa 8 - ^
STACK CFI 1f60 .cfa: $rsp 16 +
STACK CFI INIT 1f80 2a .cfa: $rsp .ra: .cfa 8 - ^
STACK CFI 1f80 .cfa: $rsp 64 +
STACK CFI INIT 1fb0 be .cfa: $rsp .ra: .cfa 8 - ^
STACK CFI 1fb0 .cfa: $rsp 96 +
STACK CFI INIT 2070 14 .cfa: $rsp .ra: .cfa 8 - ^
STACK CFI 2070 .cfa: $rsp 64 +
STACK CFI INIT 2090 b .cfa: $rsp .ra: .cfa 8 - ^
STACK CFI 2090 .cfa: $rsp 16 +
STACK CFI INIT 20a0 26 .cfa: $rsp .ra: .cfa 8 - ^
STACK CFI 20a0 .cfa: $rsp 64 +
STACK CFI INIT 20d0 2e .cfa: $rsp .ra: .cfa 8 - ^
STACK CFI 20d0 .cfa: $rsp 64 +
STACK CFI INIT 2100 5f .cfa: $rsp .ra: .cfa 8 - ^
STACK CFI 2100 .cfa: $rsp 64 +
STACK CFI INIT 2160 45 .cfa: $rsp .ra: .cfa 8 - ^
STACK CFI 2160 .cfa: $rsp 64 +
STACK CFI INIT 21b0 10d .cfa: $rsp .ra: .cfa 8 - ^
STACK CFI 21b0 .cfa: $rsp 96 +
STACK CFI INIT 22c0 19 .cfa: $rsp .ra: .cfa 8 - ^
STACK CFI 22c0 .cfa: $rsp 48 +
STACK CFI INIT 22e0 20 .cfa: $rsp .ra: .cfa 8 - ^
STACK CFI 22e0 .cfa: $rsp 64 +
STACK CFI INIT 2300 33 .cfa: $rsp .ra: .cfa 8 - ^
STACK CFI 2300 .cfa: $rsp 64 +
STACK CFI INIT 2340 36 .cfa: $rsp .ra: .cfa 8 - ^
STACK CFI 2340 .cfa: $rsp 64 +
STACK CFI INIT 2380 36 .cfa: $rsp .ra: .cfa 8 - ^
STACK CFI 2380 .cfa: $rsp 64 +
STACK CFI INIT 23c0 19 .cfa: $rsp .ra: .cfa 8 - ^
STACK CFI 23c0 .cfa: $rsp 48 +
STACK CFI INIT 23e0 3c .cfa: $rsp .ra: .cfa 8 - ^
STACK CFI 23e0 .cfa: $rsp 64 +
STACK CFI INIT 2420 4a .cfa: $rsp .ra: .cfa 8 - ^
STACK CFI 2420 .cfa: $rsp 80 +
STACK CFI INIT 2470 49 .cfa: $rsp .ra: .cfa 8 - ^
STACK CFI 2470 .cfa: $rsp 32 +
STACK CFI INIT 24c0 4b .cfa: $rsp .ra: .cfa 8 - ^
STACK CFI 24c0 .cfa: $rsp 80 +
STACK CFI INIT 2510 4a .cfa: $rsp .ra: .cfa 8 - ^
STACK CFI 2510 .cfa: $rsp 80 +
STACK CFI INIT 2560 4a .cfa: $rsp .ra: .cfa 8 - ^
STACK CFI 2560 .cfa: $rsp 80 +
STACK CFI INIT 25b0 38 .cfa: $rsp .ra: .cfa 8 - ^
STACK CFI 25b0 .cfa: $rsp 64 +
STACK CFI INIT 25f0 14 .cfa: $rsp .ra: .cfa 8 - ^
STACK CFI 25f0 .cfa: $rsp 48 +
STACK CFI INIT 2610 19 .cfa: $rsp .ra: .cfa 8 - ^
STACK CFI 2610 .cfa: $rsp 48 +
STACK CFI INIT 2630 b .cfa: $rsp .ra: .cfa 8 - ^
STACK CFI 2630 .cfa: $rsp 16 +
STACK CFI INIT 2640 26 .cfa: $rsp .ra: .cfa 8 - ^
STACK CFI 2640 .cfa: $rsp 24 +
STACK CFI INIT 2670 b .cfa: $rsp .ra: .cfa 8 - ^
STACK CFI 2670 .cfa: $rsp 16 +
STACK CFI INIT 2680 7 .cfa: $rsp .ra: .cfa 8 - ^
STACK CFI 2680 .cfa: $rsp 16 +
STACK CFI INIT 2690 21 .cfa: $rsp .ra: .cfa 8 - ^
STACK CFI 2690 .cfa: $rsp 24 +
STACK CFI INIT 26c0 7e .cfa: $rsp .ra: .cfa 8 - ^
STACK CFI 26c0 .cfa: $rsp 80 +
STACK CFI INIT 2740 6f .cfa: $rsp .ra: .cfa 8 - ^
STACK CFI 2740 .cfa: $rsp 96 +
STACK CFI INIT 27b0 11 .cfa: $rsp .ra: .cfa 8 - ^
STACK CFI 27b0 .cfa: $rsp 48 +
STACK CFI INIT 27d0 39 .cfa: $rsp .ra: .cfa 8 - ^
STACK CFI 27d0 .cfa: $rsp 64 +
STACK CFI INIT 2810 26 .cfa: $rsp .ra: .cfa 8 - ^
STACK CFI 2810 .cfa: $rsp 64 +
STACK CFI INIT 2840 28 .cfa: $rsp .ra: .cfa 8 - ^
STACK CFI 2840 .cfa: $rsp 64 +
STACK CFI INIT 2870 12 .cfa: $rsp .ra: .cfa 8 - ^
STACK CFI 2870 .cfa: $rsp 24 +
STACK CFI INIT 2890 b .cfa: $rsp .ra: .cfa 8 - ^
STACK CFI 2890 .cfa: $rsp 16 +
STACK CFI INIT 28a0 4e .cfa: $rsp .ra: .cfa 8 - ^
STACK CFI 28a0 .cfa: $rsp 64 +
STACK CFI INIT 28f0 12 .cfa: $rsp .ra: .cfa 8 - ^
STACK CFI 28f0 .cfa: $rsp 16 +
STACK CFI INIT 2910 30 .cfa: $rsp .ra: .cfa 8 - ^
STACK CFI 2910 .cfa: $rsp 64 +
STACK CFI INIT 2940 34 .cfa: $rsp .ra: .cfa 8 - ^
STACK CFI 2940 .cfa: $rsp 64 +
STACK CFI INIT 2980 12 .cfa: $rsp .ra: .cfa 8 - ^
STACK CFI 2980 .cfa: $rsp 16 +
STACK CFI INIT 29a0 11 .cfa: $rsp .ra: .cfa 8 - ^
STACK CFI 29a0 .cfa: $rsp 16 +
STACK CFI INIT 29c0 19 .cfa: $rsp .ra: .cfa 8 - ^
STACK CFI 29c0 .cfa: $rsp 48 +
STACK CFI INIT 29e0 44 .cfa: $rsp .ra: .cfa 8 - ^
STACK CFI 29e0 .cfa: $rsp 32 +
STACK CFI INIT 2a30 44 .cfa: $rsp .ra: .cfa 8 - ^
STACK CFI 2a30 .cfa: $rsp 32 +
STACK CFI INIT 2a90 b .cfa: $rsp .ra: .cfa 8 - ^
STACK CFI 2a90 .cfa: $rsp 16 +
STACK CFI INIT 2aa0 a3 .cfa: $rsp .ra: .cfa 8 - ^
STACK CFI 2aa0 .cfa: $rsp 96 +
STACK CFI INIT 2b50 44 .cfa: $rsp .ra: .cfa 8 - ^
STACK CFI 2b50 .cfa: $rsp 64 +
STACK CFI INIT 2ba0 b .cfa: $rsp .ra: .cfa 8 - ^
STACK CFI 2ba0 .cfa: $rsp 16 +
STACK CFI INIT 2bb0 1c .cfa: $rsp .ra: .cfa 8 - ^
STACK CFI 2bb0 .cfa: $rsp 16 +
STACK CFI INIT 2bd0 c8 .cfa: $rsp .ra: .cfa 8 - ^
STACK CFI 2bd0 .cfa: $rsp 112 +
STACK CFI INIT 2ca0 14 .cfa: $rsp .ra: .cfa 8 - ^
STACK CFI 2ca0 .cfa: $rsp 48 +
STACK CFI INIT 2cc0 19 .cfa: $rsp .ra: .cfa 8 - ^
STACK CFI 2cc0 .cfa: $rsp 48 +
STACK CFI INIT 2ce0 7 .cfa: $rsp .ra: .cfa 8 - ^
STACK CFI 2ce0 .cfa: $rsp 16 +
STACK CFI INIT 2cf0 cc .cfa: $rsp .ra: .cfa 8 - ^
STACK CFI 2cf0 .cfa: $rsp 80 +
STACK CFI INIT 2dc0 3e .cfa: $rsp .ra: .cfa 8 - ^
STACK CFI 2dc0 .cfa: $rsp 64 +
STACK CFI INIT 2e00 76 .cfa: $rsp .ra: .cfa 8 - ^
STACK CFI 2e00 .cfa: $rsp 80 +
STACK CFI INIT 2e80 2f .cfa: $rsp .ra: .cfa 8 - ^
STACK CFI 2e80 .cfa: $rsp 32 +
STACK CFI INIT 2eb0 53 .cfa: $rsp .ra: .cfa 8 - ^
STACK CFI 2eb0 .cfa: $rsp 80 +
STACK CFI INIT 2f10 14 .cfa: $rsp .ra: .cfa 8 - ^
STACK CFI 2f10 .cfa: $rsp 48 +
STACK CFI INIT 2f30 1a8 .cfa: $rsp .ra: .cfa 8 - ^
STACK CFI 2f30 .cfa: $rsp 112 +
STACK CFI INIT 30e0 23 .cfa: $rsp .ra: .cfa 8 - ^
STACK CFI 30e0 .cfa: $rsp 64 +
STACK CFI INIT 3110 29 .cfa: $rsp .ra: .cfa 8 - ^
STACK CFI 3110 .cfa: $rsp 64 +
STACK CFI INIT 3140 2c .cfa: $rsp .ra: .cfa 8 - ^
STACK CFI 3140 .cfa: $rsp 64 +
STACK CFI INIT 3170 1d .cfa: $rsp .ra: .cfa 8 - ^
STACK CFI 3170 .cfa: $rsp 48 +
STACK CFI INIT 3190 7 .cfa: $rsp .ra: .cfa 8 - ^
STACK CFI 3190 .cfa: $rsp 16 +
STACK CFI INIT 31a0 3c7 .cfa: $rsp .ra: .cfa 8 - ^
STACK CFI 31a0 .cfa: $rsp 240 +
STACK CFI INIT 3570 21 .cfa: $rsp .ra: .cfa 8 - ^
STACK CFI 3570 .cfa: $rsp 48 +
STACK CFI INIT 35a0 42 .cfa: $rsp .ra: .cfa 8 - ^
STACK CFI 35a0 .cfa: $rsp 48 +
STACK CFI INIT 35f0 21 .cfa: $rsp .ra: .cfa 8 - ^
STACK CFI 35f0 .cfa: $rsp 48 +
STACK CFI INIT 3620 309 .cfa: $rsp .ra: .cfa 8 - ^
STACK CFI 3620 .cfa: $rsp 176 +
STACK CFI INIT 3930 42 .cfa: $rsp .ra: .cfa 8 - ^
STACK CFI 3930 .cfa: $rsp 48 +
STACK CFI INIT 3980 21 .cfa: $rsp .ra: .cfa 8 - ^
STACK CFI 3980 .cfa: $rsp 48 +
STACK CFI INIT 39b0 54 .cfa: $rsp .ra: .cfa 8 - ^
STACK CFI 39b0 .cfa: $rsp 64 +
STACK CFI INIT 3a10 5a .cfa: $rsp .ra: .cfa 8 - ^
STACK CFI 3a10 .cfa: $rsp 96 +
STACK CFI INIT 3a70 1e .cfa: $rsp .ra: .cfa 8 - ^
STACK CFI 3a70 .cfa: $rsp 48 +
STACK CFI INIT 3a90 46 .cfa: $rsp .ra: .cfa 8 - ^
STACK CFI 3a90 .cfa: $rsp 80 +
STACK CFI INIT 3ae0 46 .cfa: $rsp .ra: .cfa 8 - ^
STACK CFI 3ae0 .cfa: $rsp 80 +
STACK CFI INIT 3b30 c0 .cfa: $rsp .ra: .cfa 8 - ^
STACK CFI 3b30 .cfa: $rsp 144 +
STACK CFI INIT 3bf0 ac .cfa: $rsp .ra: .cfa 8 - ^
STACK CFI 3bf0 .cfa: $rsp 112 +
STACK CFI INIT 3ca0 22 .cfa: $rsp .ra: .cfa 8 - ^
STACK CFI 3ca0 .cfa: $rsp 48 +
STACK CFI INIT 3cd0 1e .cfa: $rsp .ra: .cfa 8 - ^
STACK CFI 3cd0 .cfa: $rsp 48 +
STACK CFI INIT 3cf0 1e .cfa: $rsp .ra: .cfa 8 - ^
STACK CFI 3cf0 .cfa: $rsp 48 +
STACK CFI INIT 3d10 1e .cfa: $rsp .ra: .cfa 8 - ^
STACK CFI 3d10 .cfa: $rsp 48 +
STACK CFI INIT 3d30 76 .cfa: $rsp .ra: .cfa 8 - ^
STACK CFI 3d30 .cfa: $rsp 112 +
STACK CFI INIT 3db0 48 .cfa: $rsp .ra: .cfa 8 - ^
STACK CFI 3db0 .cfa: $rsp 64 +
STACK CFI INIT 3e00 19 .cfa: $rsp .ra: .cfa 8 - ^
STACK CFI 3e00 .cfa: $rsp 48 +
STACK CFI INIT 3e20 6c .cfa: $rsp .ra: .cfa 8 - ^
STACK CFI 3e20 .cfa: $rsp 80 +
STACK CFI INIT 3e90 d2 .cfa: $rsp .ra: .cfa 8 - ^
STACK CFI 3e90 .cfa: $rsp 96 +
STACK CFI INIT 3f70 1e .cfa: $rsp .ra: .cfa 8 - ^
STACK CFI 3f70 .cfa: $rsp 48 +
STACK CFI INIT 3f90 13 .cfa: $rsp .ra: .cfa 8 - ^
STACK CFI 3f90 .cfa: $rsp 16 +
STACK CFI INIT 3fb0 145 .cfa: $rsp .ra: .cfa 8 - ^
STACK CFI 3fb0 .cfa: $rsp 144 +
STACK CFI INIT 4100 21 .cfa: $rsp .ra: .cfa 8 - ^
STACK CFI 4100 .cfa: $rsp 48 +
STACK CFI INIT 4130 25 .cfa: $rsp .ra: .cfa 8 - ^
STACK CFI 4130 .cfa: $rsp 48 +
STACK CFI INIT 4160 55 .cfa: $rsp .ra: .cfa 8 - ^
STACK CFI 4160 .cfa: $rsp 64 +
STACK CFI INIT 41c0 2b .cfa: $rsp .ra: .cfa 8 - ^
STACK CFI 41c0 .cfa: $rsp 24 +
STACK CFI INIT 4200 4d .cfa: $rsp .ra: .cfa 8 - ^
STACK CFI 4200 .cfa: $rsp 64 +
STACK CFI INIT 4250 5d .cfa: $rsp .ra: .cfa 8 - ^
STACK CFI 4250 .cfa: $rsp 80 +
STACK CFI INIT 42b0 59 .cfa: $rsp .ra: .cfa 8 - ^
STACK CFI 42b0 .cfa: $rsp 80 +
STACK CFI INIT 4310 14 .cfa: $rsp .ra: .cfa 8 - ^
STACK CFI 4310 .cfa: $rsp 48 +
STACK CFI INIT 4330 dc .cfa: $rsp .ra: .cfa 8 - ^
STACK CFI 4330 .cfa: $rsp 96 +
STACK CFI INIT 4410 20 .cfa: $rsp .ra: .cfa 8 - ^
STACK CFI 4410 .cfa: $rsp 64 +
STACK CFI INIT 4430 30 .cfa: $rsp .ra: .cfa 8 - ^
STACK CFI 4430 .cfa: $rsp 80 +
STACK CFI INIT 4460 27 .cfa: $rsp .ra: .cfa 8 - ^
STACK CFI 4460 .cfa: $rsp 64 +
STACK CFI INIT 4490 3d .cfa: $rsp .ra: .cfa 8 - ^
STACK CFI 4490 .cfa: $rsp 64 +
STACK CFI INIT 44d0 39 .cfa: $rsp .ra: .cfa 8 - ^
STACK CFI 44d0 .cfa: $rsp 64 +
STACK CFI INIT 4510 36 .cfa: $rsp .ra: .cfa 8 - ^
STACK CFI 4510 .cfa: $rsp 64 +
STACK CFI INIT 4550 19 .cfa: $rsp .ra: .cfa 8 - ^
STACK CFI 4550 .cfa: $rsp 48 +
STACK CFI INIT 4570 4a .cfa: $rsp .ra: .cfa 8 - ^
STACK CFI 4570 .cfa: $rsp 80 +
STACK CFI INIT 45c0 25 .cfa: $rsp .ra: .cfa 8 - ^
STACK CFI 45c0 .cfa: $rsp 32 +
STACK CFI INIT 45f0 2f .cfa: $rsp .ra: .cfa 8 - ^
STACK CFI 45f0 .cfa: $rsp 32 +
STACK CFI INIT 4620 b .cfa: $rsp .ra: .cfa 8 - ^
STACK CFI 4620 .cfa: $rsp 16 +
STACK CFI INIT 4630 37 .cfa: $rsp .ra: .cfa 8 - ^
STACK CFI 4630 .cfa: $rsp 64 +
STACK CFI INIT 4670 19 .cfa: $rsp .ra: .cfa 8 - ^
STACK CFI 4670 .cfa: $rsp 48 +
STACK CFI INIT 4690 30 .cfa: $rsp .ra: .cfa 8 - ^
STACK CFI 4690 .cfa: $rsp 64 +
STACK CFI INIT 46c0 1ec .cfa: $rsp .ra: .cfa 8 - ^
STACK CFI 46c0 .cfa: $rsp 208 +
STACK CFI INIT 48b0 21 .cfa: $rsp .ra: .cfa 8 - ^
STACK CFI 48b0 .cfa: $rsp 48 +
STACK CFI INIT 48e0 34 .cfa: $rsp .ra: .cfa 8 - ^
STACK CFI 48e0 .cfa: $rsp 64 +
STACK CFI INIT 4920 42 .cfa: $rsp .ra: .cfa 8 - ^
STACK CFI 4920 .cfa: $rsp 64 +
STACK CFI INIT 4970 7c .cfa: $rsp .ra: .cfa 8 - ^
STACK CFI 4970 .cfa: $rsp 96 +
STACK CFI INIT 49f0 14 .cfa: $rsp .ra: .cfa 8 - ^
STACK CFI 49f0 .cfa: $rsp 48 +
STACK CFI INIT 4a10 e0 .cfa: $rsp .ra: .cfa 8 - ^
STACK CFI 4a10 .cfa: $rsp 112 +
STACK CFI INIT 4af0 34 .cfa: $rsp .ra: .cfa 8 - ^
STACK CFI 4af0 .cfa: $rsp 64 +
STACK CFI INIT 4b30 26b .cfa: $rsp .ra: .cfa 8 - ^
STACK CFI 4b30 .cfa: $rsp 208 +
STACK CFI INIT 4da0 81 .cfa: $rsp .ra: .cfa 8 - ^
STACK CFI 4da0 .cfa: $rsp 80 +
STACK CFI INIT 4e30 2b .cfa: $rsp .ra: .cfa 8 - ^
STACK CFI 4e30 .cfa: $rsp 80 +
STACK CFI INIT 4e60 7b .cfa: $rsp .ra: .cfa 8 - ^
STACK CFI 4e60 .cfa: $rsp 80 +
STACK CFI INIT 4ee0 23 .cfa: $rsp .ra: .cfa 8 - ^
STACK CFI 4ee0 .cfa: $rsp 64 +
STACK CFI INIT 4f10 55 .cfa: $rsp .ra: .cfa 8 - ^
STACK CFI 4f10 .cfa: $rsp 40 +
STACK CFI INIT 4f70 23 .cfa: $rsp .ra: .cfa 8 - ^
STACK CFI 4f70 .cfa: $rsp 64 +
STACK CFI INIT 4fa0 48 .cfa: $rsp .ra: .cfa 8 - ^
STACK CFI 4fa0 .cfa: $rsp 80 +
STACK CFI INIT 4ff0 6f .cfa: $rsp .ra: .cfa 8 - ^
STACK CFI 4ff0 .cfa: $rsp 40 +
STACK CFI INIT 5060 48 .cfa: $rsp .ra: .cfa 8 - ^
STACK CFI 5060 .cfa: $rsp 80 +
STACK CFI INIT 50b0 4e .cfa: $rsp .ra: .cfa 8 - ^
STACK CFI 50b0 .cfa: $rsp 64 +
STACK CFI INIT 5100 f .cfa: $rsp .ra: .cfa 8 - ^
STACK CFI 5100 .cfa: $rsp 16 +
STACK CFI INIT 5110 19 .cfa: $rsp .ra: .cfa 8 - ^
STACK CFI 5110 .cfa: $rsp 48 +
STACK CFI INIT 5130 1e5 .cfa: $rsp .ra: .cfa 8 - ^
STACK CFI 5130 .cfa: $rsp 224 +
STACK CFI INIT 5320 21 .cfa: $rsp .ra: .cfa 8 - ^
STACK CFI 5320 .cfa: $rsp 48 +
STACK CFI INIT 5350 21 .cfa: $rsp .ra: .cfa 8 - ^
STACK CFI 5350 .cfa: $rsp 48 +
STACK CFI INIT 5380 15 .cfa: $rsp .ra: .cfa 8 - ^
STACK CFI 5380 .cfa: $rsp 24 +
STACK CFI INIT 53a0 4b .cfa: $rsp .ra: .cfa 8 - ^
STACK CFI 53a0 .cfa: $rsp 96 +
STACK CFI INIT 53f0 14 .cfa: $rsp .ra: .cfa 8 - ^
STACK CFI 53f0 .cfa: $rsp 48 +
STACK CFI INIT 5410 64 .cfa: $rsp .ra: .cfa 8 - ^
STACK CFI 5410 .cfa: $rsp 96 +
STACK CFI INIT 5480 14 .cfa: $rsp .ra: .cfa 8 - ^
STACK CFI 5480 .cfa: $rsp 48 +
STACK CFI INIT 54a0 64 .cfa: $rsp .ra: .cfa 8 - ^
STACK CFI 54a0 .cfa: $rsp 96 +
STACK CFI INIT 5510 14 .cfa: $rsp .ra: .cfa 8 - ^
STACK CFI 5510 .cfa: $rsp 48 +
STACK CFI INIT 5530 87 .cfa: $rsp .ra: .cfa 8 - ^
STACK CFI 5530 .cfa: $rsp 96 +
STACK CFI INIT 55c0 37 .cfa: $rsp .ra: .cfa 8 - ^
STACK CFI 55c0 .cfa: $rsp 64 +
STACK CFI INIT 5600 4a .cfa: $rsp .ra: .cfa 8 - ^
STACK CFI 5600 .cfa: $rsp 80 +
STACK CFI INIT 5650 30 .cfa: $rsp .ra: .cfa 8 - ^
STACK CFI 5650 .cfa: $rsp 64 +
STACK CFI INIT 5680 19 .cfa: $rsp .ra: .cfa 8 - ^
STACK CFI 5680 .cfa: $rsp 48 +
STACK CFI INIT 56a0 16 .cfa: $rsp .ra: .cfa 8 - ^
STACK CFI 56a0 .cfa: $rsp 24 +
STACK CFI INIT 56c0 55 .cfa: $rsp .ra: .cfa 8 - ^
STACK CFI 56c0 .cfa: $rsp 64 +
STACK CFI INIT 5720 b .cfa: $rsp .ra: .cfa 8 - ^
STACK CFI 5720 .cfa: $rsp 16 +
STACK CFI INIT 5730 40 .cfa: $rsp .ra: .cfa 8 - ^
STACK CFI 5730 .cfa: $rsp 64 +
STACK CFI INIT 5770 2a .cfa: $rsp .ra: .cfa 8 - ^
STACK CFI 5770 .cfa: $rsp 64 +
STACK CFI INIT 57a0 b .cfa: $rsp .ra: .cfa 8 - ^
STACK CFI 57a0 .cfa: $rsp 16 +
STACK CFI INIT 57b0 7 .cfa: $rsp .ra: .cfa 8 - ^
STACK CFI 57b0 .cfa: $rsp 16 +
STACK CFI INIT 57c0 1f .cfa: $rsp .ra: .cfa 8 - ^
STACK CFI 57c0 .cfa: $rsp 24 +
STACK CFI INIT 57e0 a6 .cfa: $rsp .ra: .cfa 8 - ^
STACK CFI 57e0 .cfa: $rsp 96 +
STACK CFI INIT 5890 7e .cfa: $rsp .ra: .cfa 8 - ^
STACK CFI 5890 .cfa: $rsp 80 +
STACK CFI INIT 5910 4b .cfa: $rsp .ra: .cfa 8 - ^
STACK CFI 5910 .cfa: $rsp 80 +
STACK CFI INIT 5960 e .cfa: $rsp .ra: .cfa 8 - ^
STACK CFI 5960 .cfa: $rsp 16 +
STACK CFI INIT 5970 c .cfa: $rsp .ra: .cfa 8 - ^
STACK CFI 5970 .cfa: $rsp 16 +
STACK CFI INIT 5980 9 .cfa: $rsp .ra: .cfa 8 - ^
STACK CFI 5980 .cfa: $rsp 16 +
STACK CFI INIT 5990 2fe .cfa: $rsp .ra: .cfa 8 - ^
STACK CFI 5990 .cfa: $rsp 72 +
STACK CFI INIT 5c90 2a5 .cfa: $rsp .ra: .cfa 8 - ^
STACK CFI 5c90 .cfa: $rsp 72 +
STACK CFI INIT 5f40 33 .cfa: $rsp .ra: .cfa 8 - ^
STACK CFI 5f40 .cfa: $rsp 40 +
STACK CFI INIT 5f80 46 .cfa: $rsp .ra: .cfa 8 - ^
STACK CFI 5f80 .cfa: $rsp 80 +
STACK CFI INIT 5fd0 1a .cfa: $rsp .ra: .cfa 8 - ^
STACK CFI 5fd0 .cfa: $rsp 48 +
STACK CFI INIT 5ff0 1b2 .cfa: $rsp .ra: .cfa 8 - ^
STACK CFI 5ff0 .cfa: $rsp 176 +
STACK CFI INIT 61b0 44 .cfa: $rsp .ra: .cfa 8 - ^
STACK CFI 61b0 .cfa: $rsp 32 +
STACK CFI INIT 6200 2dd .cfa: $rsp .ra: .cfa 8 - ^
STACK CFI 6200 .cfa: $rsp 304 +
STACK CFI INIT 64e0 23 .cfa: $rsp .ra: .cfa 8 - ^
STACK CFI 64e0 .cfa: $rsp 96 +
STACK CFI INIT 6510 23 .cfa: $rsp .ra: .cfa 8 - ^
STACK CFI 6510 .cfa: $rsp 96 +
STACK CFI INIT 6540 d3 .cfa: $rsp .ra: .cfa 8 - ^
STACK CFI 6540 .cfa: $rsp 112 +
STACK CFI INIT 6620 d3 .cfa: $rsp .ra: .cfa 8 - ^
STACK CFI 6620 .cfa: $rsp 112 +
STACK CFI INIT 6700 14 .cfa: $rsp .ra: .cfa 8 - ^
STACK CFI 6700 .cfa: $rsp 64 +
STACK CFI INIT 6720 f .cfa: $rsp .ra: .cfa 8 - ^
STACK CFI 6720 .cfa: $rsp 16 +
STACK CFI INIT 6730 d5 .cfa: $rsp .ra: .cfa 8 - ^
STACK CFI 6730 .cfa: $rsp 112 +
STACK CFI INIT 6810 7b .cfa: $rsp .ra: .cfa 8 - ^
STACK CFI 6810 .cfa: $rsp 112 +
STACK CFI INIT 6890 1e .cfa: $rsp .ra: .cfa 8 - ^
STACK CFI 6890 .cfa: $rsp 48 +
STACK CFI INIT 68b0 2a .cfa: $rsp .ra: .cfa 8 - ^
STACK CFI 68b0 .cfa: $rsp 80 +
STACK CFI INIT 68e0 a3 .cfa: $rsp .ra: .cfa 8 - ^
STACK CFI 68e0 .cfa: $rsp 96 +
STACK CFI INIT 6990 7c .cfa: $rsp .ra: .cfa 8 - ^
STACK CFI 6990 .cfa: $rsp 96 +
STACK CFI INIT 6a10 14 .cfa: $rsp .ra: .cfa 8 - ^
STACK CFI 6a10 .cfa: $rsp 48 +
STACK CFI INIT 6a30 4e .cfa: $rsp .ra: .cfa 8 - ^
STACK CFI 6a30 .cfa: $rsp 64 +
STACK CFI INIT 6a80 38 .cfa: $rsp .ra: .cfa 8 - ^
STACK CFI 6a80 .cfa: $rsp 80 +
STACK CFI INIT 6ac0 264 .cfa: $rsp .ra: .cfa 8 - ^
STACK CFI 6ac0 .cfa: $rsp 208 +
STACK CFI INIT 6d30 1c .cfa: $rsp .ra: .cfa 8 - ^
STACK CFI 6d30 .cfa: $rsp 16 +
STACK CFI INIT 6d50 b .cfa: $rsp .ra: .cfa 8 - ^
STACK CFI 6d50 .cfa: $rsp 16 +
STACK CFI INIT 6d60 6f .cfa: $rsp .ra: .cfa 8 - ^
STACK CFI 6d60 .cfa: $rsp 96 +
STACK CFI INIT 6dd0 39 .cfa: $rsp .ra: .cfa 8 - ^
STACK CFI 6dd0 .cfa: $rsp 64 +
STACK CFI INIT 6e10 26 .cfa: $rsp .ra: .cfa 8 - ^
STACK CFI 6e10 .cfa: $rsp 64 +
STACK CFI INIT 6e40 12 .cfa: $rsp .ra: .cfa 8 - ^
STACK CFI 6e40 .cfa: $rsp 24 +
STACK CFI INIT 6e60 75 .cfa: $rsp .ra: .cfa 8 - ^
STACK CFI 6e60 .cfa: $rsp 80 +
STACK CFI INIT 6ee0 cd .cfa: $rsp .ra: .cfa 8 - ^
STACK CFI 6ee0 .cfa: $rsp 80 +
STACK CFI INIT 6fb0 28 .cfa: $rsp .ra: .cfa 8 - ^
STACK CFI 6fb0 .cfa: $rsp 64 +
STACK CFI INIT 6fe0 e .cfa: $rsp .ra: .cfa 8 - ^
STACK CFI 6fe0 .cfa: $rsp 16 +
STACK CFI INIT 6ff0 19 .cfa: $rsp .ra: .cfa 8 - ^
STACK CFI 6ff0 .cfa: $rsp 48 +
STACK CFI INIT 7010 b .cfa: $rsp .ra: .cfa 8 - ^
STACK CFI 7010 .cfa: $rsp 16 +
STACK CFI INIT 7020 a3 .cfa: $rsp .ra: .cfa 8 - ^
STACK CFI 7020 .cfa: $rsp 96 +
STACK CFI INIT 70d0 1c .cfa: $rsp .ra: .cfa 8 - ^
STACK CFI 70d0 .cfa: $rsp 24 +
STACK CFI INIT 70f0 35 .cfa: $rsp .ra: .cfa 8 - ^
STACK CFI 70f0 .cfa: $rsp 64 +
STACK CFI INIT 7130 b .cfa: $rsp .ra: .cfa 8 - ^
STACK CFI 7130 .cfa: $rsp 16 +
STACK CFI INIT 7140 35 .cfa: $rsp .ra: .cfa 8 - ^
STACK CFI 7140 .cfa: $rsp 64 +
STACK CFI INIT 7180 26b .cfa: $rsp .ra: .cfa 8 - ^
STACK CFI 7180 .cfa: $rsp 208 +
STACK CFI INIT 73f0 76 .cfa: $rsp .ra: .cfa 8 - ^
STACK CFI 73f0 .cfa: $rsp 80 +
STACK CFI INIT 7470 15 .cfa: $rsp .ra: .cfa 8 - ^
STACK CFI 7470 .cfa: $rsp 24 +
STACK CFI INIT 7490 2b .cfa: $rsp .ra: .cfa 8 - ^
STACK CFI 7490 .cfa: $rsp 80 +
STACK CFI INIT 74c0 1ac .cfa: $rsp .ra: .cfa 8 - ^
STACK CFI 74c0 .cfa: $rsp 208 +
STACK CFI INIT 7670 21 .cfa: $rsp .ra: .cfa 8 - ^
STACK CFI 7670 .cfa: $rsp 48 +
STACK CFI INIT 76a0 4e .cfa: $rsp .ra: .cfa 8 - ^
STACK CFI 76a0 .cfa: $rsp 64 +
STACK CFI INIT 76f0 19 .cfa: $rsp .ra: .cfa 8 - ^
STACK CFI 76f0 .cfa: $rsp 48 +
STACK CFI INIT 7710 1d .cfa: $rsp .ra: .cfa 8 - ^
STACK CFI 7710 .cfa: $rsp 48 +
STACK CFI INIT 7730 7 .cfa: $rsp .ra: .cfa 8 - ^
STACK CFI 7730 .cfa: $rsp 16 +
STACK CFI INIT 7740 36 .cfa: $rsp .ra: .cfa 8 - ^
STACK CFI 7740 .cfa: $rsp 64 +
STACK CFI INIT 7780 36 .cfa: $rsp .ra: .cfa 8 - ^
STACK CFI 7780 .cfa: $rsp 64 +
STACK CFI INIT 77c0 19 .cfa: $rsp .ra: .cfa 8 - ^
STACK CFI 77c0 .cfa: $rsp 48 +
STACK CFI INIT 77e0 4a .cfa: $rsp .ra: .cfa 8 - ^
STACK CFI 77e0 .cfa: $rsp 80 +
STACK CFI INIT 7830 21b .cfa: $rsp .ra: .cfa 8 - ^
STACK CFI 7830 .cfa: $rsp 176 +
STACK CFI INIT 7a50 6a .cfa: $rsp .ra: .cfa 8 - ^
STACK CFI 7a50 .cfa: $rsp 80 +
STACK CFI INIT 7ac0 7b .cfa: $rsp .ra: .cfa 8 - ^
STACK CFI 7ac0 .cfa: $rsp 80 +
STACK CFI INIT 7b40 23 .cfa: $rsp .ra: .cfa 8 - ^
STACK CFI 7b40 .cfa: $rsp 64 +
STACK CFI INIT 7b70 55 .cfa: $rsp .ra: .cfa 8 - ^
STACK CFI 7b70 .cfa: $rsp 40 +
STACK CFI INIT 7bd0 c6 .cfa: $rsp .ra: .cfa 8 - ^
STACK CFI 7bd0 .cfa: $rsp 112 +
STACK CFI INIT 7ca0 14 .cfa: $rsp .ra: .cfa 8 - ^
STACK CFI 7ca0 .cfa: $rsp 48 +
STACK CFI INIT 7cc0 7 .cfa: $rsp .ra: .cfa 8 - ^
STACK CFI 7cc0 .cfa: $rsp 16 +
STACK CFI INIT 7cd0 5e .cfa: $rsp .ra: .cfa 8 - ^
STACK CFI 7cd0 .cfa: $rsp 96 +
STACK CFI INIT 7d30 14 .cfa: $rsp .ra: .cfa 8 - ^
STACK CFI 7d30 .cfa: $rsp 48 +
STACK CFI INIT 7d50 4a .cfa: $rsp .ra: .cfa 8 - ^
STACK CFI 7d50 .cfa: $rsp 80 +
STACK CFI INIT 7da0 b .cfa: $rsp .ra: .cfa 8 - ^
STACK CFI 7da0 .cfa: $rsp 16 +
STACK CFI INIT 7db0 3c .cfa: $rsp .ra: .cfa 8 - ^
STACK CFI 7db0 .cfa: $rsp 64 +
STACK CFI INIT 7df0 30 .cfa: $rsp .ra: .cfa 8 - ^
STACK CFI 7df0 .cfa: $rsp 80 +
STACK CFI INIT 7e20 25 .cfa: $rsp .ra: .cfa 8 - ^
STACK CFI 7e20 .cfa: $rsp 32 +
STACK CFI INIT 7e50 50 .cfa: $rsp .ra: .cfa 8 - ^
STACK CFI 7e50 .cfa: $rsp 80 +
STACK CFI INIT 7ea0 27 .cfa: $rsp .ra: .cfa 8 - ^
STACK CFI 7ea0 .cfa: $rsp 64 +
STACK CFI INIT 7ed0 33 .cfa: $rsp .ra: .cfa 8 - ^
STACK CFI 7ed0 .cfa: $rsp 32 +
STACK CFI INIT 7f10 2f .cfa: $rsp .ra: .cfa 8 - ^
STACK CFI 7f10 .cfa: $rsp 32 +
STACK CFI INIT 7f40 39 .cfa: $rsp .ra: .cfa 8 - ^
STACK CFI 7f40 .cfa: $rsp 80 +
STACK CFI INIT 7f80 123 .cfa: $rsp .ra: .cfa 8 - ^
STACK CFI 7f80 .cfa: $rsp 224 +
STACK CFI INIT 80b0 27 .cfa: $rsp .ra: .cfa 8 - ^
STACK CFI 80b0 .cfa: $rsp 128 +
STACK CFI INIT 80e0 27 .cfa: $rsp .ra: .cfa 8 - ^
STACK CFI 80e0 .cfa: $rsp 128 +
STACK CFI INIT 8110 27 .cfa: $rsp .ra: .cfa 8 - ^
STACK CFI 8110 .cfa: $rsp 128 +
STACK CFI INIT 8140 27 .cfa: $rsp .ra: .cfa 8 - ^
STACK CFI 8140 .cfa: $rsp 128 +
STACK CFI INIT 8170 27 .cfa: $rsp .ra: .cfa 8 - ^
STACK CFI 8170 .cfa: $rsp 128 +
STACK CFI INIT 81a0 70a .cfa: $rsp .ra: .cfa 8 - ^
STACK CFI 81a0 .cfa: $rsp 304 +
STACK CFI INIT 88b0 21 .cfa: $rsp .ra: .cfa 8 - ^
STACK CFI 88b0 .cfa: $rsp 64 +
STACK CFI INIT 88e0 21 .cfa: $rsp .ra: .cfa 8 - ^
STACK CFI 88e0 .cfa: $rsp 64 +
STACK CFI INIT 8910 21 .cfa: $rsp .ra: .cfa 8 - ^
STACK CFI 8910 .cfa: $rsp 64 +
STACK CFI INIT 8940 123 .cfa: $rsp .ra: .cfa 8 - ^
STACK CFI 8940 .cfa: $rsp 224 +
STACK CFI INIT 8a70 27 .cfa: $rsp .ra: .cfa 8 - ^
STACK CFI 8a70 .cfa: $rsp 128 +
STACK CFI INIT 8aa0 27 .cfa: $rsp .ra: .cfa 8 - ^
STACK CFI 8aa0 .cfa: $rsp 128 +
STACK CFI INIT 8ad0 27 .cfa: $rsp .ra: .cfa 8 - ^
STACK CFI 8ad0 .cfa: $rsp 128 +
STACK CFI INIT 8b00 27 .cfa: $rsp .ra: .cfa 8 - ^
STACK CFI 8b00 .cfa: $rsp 128 +
STACK CFI INIT 8b30 27 .cfa: $rsp .ra: .cfa 8 - ^
STACK CFI 8b30 .cfa: $rsp 128 +
STACK CFI INIT 8b60 101 .cfa: $rsp .ra: .cfa 8 - ^
STACK CFI 8b60 .cfa: $rsp 208 +
STACK CFI INIT 8c70 23 .cfa: $rsp .ra: .cfa 8 - ^
STACK CFI 8c70 .cfa: $rsp 112 +
STACK CFI INIT 8ca0 23 .cfa: $rsp .ra: .cfa 8 - ^
STACK CFI 8ca0 .cfa: $rsp 112 +
STACK CFI INIT 8cd0 23 .cfa: $rsp .ra: .cfa 8 - ^
STACK CFI 8cd0 .cfa: $rsp 112 +
STACK CFI INIT 8d00 23 .cfa: $rsp .ra: .cfa 8 - ^
STACK CFI 8d00 .cfa: $rsp 112 +
STACK CFI INIT 8d30 23 .cfa: $rsp .ra: .cfa 8 - ^
STACK CFI 8d30 .cfa: $rsp 112 +
STACK CFI INIT 8d60 f5 .cfa: $rsp .ra: .cfa 8 - ^
STACK CFI 8d60 .cfa: $rsp 192 +
STACK CFI INIT 8e60 21 .cfa: $rsp .ra: .cfa 8 - ^
STACK CFI 8e60 .cfa: $rsp 112 +
STACK CFI INIT 8e90 21 .cfa: $rsp .ra: .cfa 8 - ^
STACK CFI 8e90 .cfa: $rsp 112 +
STACK CFI INIT 8ec0 21 .cfa: $rsp .ra: .cfa 8 - ^
STACK CFI 8ec0 .cfa: $rsp 112 +
STACK CFI INIT 8ef0 21 .cfa: $rsp .ra: .cfa 8 - ^
STACK CFI 8ef0 .cfa: $rsp 112 +
STACK CFI INIT 8f20 21 .cfa: $rsp .ra: .cfa 8 - ^
STACK CFI 8f20 .cfa: $rsp 112 +
STACK CFI INIT 8f50 130 .cfa: $rsp .ra: .cfa 8 - ^
STACK CFI 8f50 .cfa: $rsp 64 +
STACK CFI INIT 9080 1eb .cfa: $rsp .ra: .cfa 8 - ^
STACK CFI 9080 .cfa: $rsp 144 +
STACK CFI INIT 9270 21 .cfa: $rsp .ra: .cfa 8 - ^
STACK CFI 9270 .cfa: $rsp 48 +
STACK CFI INIT 92a0 333 .cfa: $rsp .ra: .cfa 8 - ^
STACK CFI 92a0 .cfa: $rsp 2368 +
STACK CFI INIT 95e0 24 .cfa: $rsp .ra: .cfa 8 - ^
STACK CFI 95e0 .cfa: $rsp 64 +
STACK CFI INIT 9610 219 .cfa: $rsp .ra: .cfa 8 - ^
STACK CFI 9610 .cfa: $rsp 2336 +
STACK CFI INIT 9830 24 .cfa: $rsp .ra: .cfa 8 - ^
STACK CFI 9830 .cfa: $rsp 48 +
STACK CFI INIT 9860 3e4 .cfa: $rsp .ra: .cfa 8 - ^
STACK CFI 9860 .cfa: $rsp 208 +
STACK CFI INIT 9c50 17 .cfa: $rsp .ra: .cfa 8 - ^
STACK CFI 9c50 .cfa: $rsp 48 +
STACK CFI INIT 9c70 31 .cfa: $rsp .ra: .cfa 8 - ^
STACK CFI 9c70 .cfa: $rsp 64 +
STACK CFI INIT 9cb0 135 .cfa: $rsp .ra: .cfa 8 - ^
STACK CFI 9cb0 .cfa: $rsp 112 +
STACK CFI INIT 9df0 162 .cfa: $rsp .ra: .cfa 8 - ^
STACK CFI 9df0 .cfa: $rsp 96 +
STACK CFI INIT 9f60 8c .cfa: $rsp .ra: .cfa 8 - ^
STACK CFI 9f60 .cfa: $rsp 1472 +
STACK CFI INIT 9ff0 97 .cfa: $rsp .ra: .cfa 8 - ^
STACK CFI 9ff0 .cfa: $rsp 96 +
STACK CFI INIT a090 141 .cfa: $rsp .ra: .cfa 8 - ^
STACK CFI a090 .cfa: $rsp 640 +
STACK CFI INIT a1e0 b2 .cfa: $rsp .ra: .cfa 8 - ^
STACK CFI a1e0 .cfa: $rsp 528 +
STACK CFI INIT a2a0 21 .cfa: $rsp .ra: .cfa 8 - ^
STACK CFI a2a0 .cfa: $rsp 96 +
STACK CFI INIT a2d0 297 .cfa: $rsp .ra: .cfa 8 - ^
STACK CFI a2d0 .cfa: $rsp 1952 +
STACK CFI INIT a570 21 .cfa: $rsp .ra: .cfa 8 - ^
STACK CFI a570 .cfa: $rsp 96 +
STACK CFI INIT a5a0 4f6 .cfa: $rsp .ra: .cfa 8 - ^
STACK CFI a5a0 .cfa: $rsp 560 +
STACK CFI INIT aaa0 23 .cfa: $rsp .ra: .cfa 8 - ^
STACK CFI aaa0 .cfa: $rsp 80 +
STACK CFI INIT aad0 118 .cfa: $rsp .ra: .cfa 8 - ^
STACK CFI aad0 .cfa: $rsp 112 +
STACK CFI INIT abf0 ed .cfa: $rsp .ra: .cfa 8 - ^
STACK CFI abf0 .cfa: $rsp 224 +
STACK CFI INIT ace0 21 .cfa: $rsp .ra: .cfa 8 - ^
STACK CFI ace0 .cfa: $rsp 48 +
STACK CFI INIT ad10 113 .cfa: $rsp .ra: .cfa 8 - ^
STACK CFI ad10 .cfa: $rsp 224 +
STACK CFI INIT ae30 1e .cfa: $rsp .ra: .cfa 8 - ^
STACK CFI ae30 .cfa: $rsp 24 +
STACK CFI INIT ae50 30 .cfa: $rsp .ra: .cfa 8 - ^
STACK CFI ae50 .cfa: $rsp 64 +
STACK CFI INIT ae80 51 .cfa: $rsp .ra: .cfa 8 - ^
STACK CFI ae80 .cfa: $rsp 80 +
STACK CFI INIT aee0 3a .cfa: $rsp .ra: .cfa 8 - ^
STACK CFI aee0 .cfa: $rsp 64 +
STACK CFI INIT af20 63 .cfa: $rsp .ra: .cfa 8 - ^
STACK CFI af20 .cfa: $rsp 80 +
STACK CFI INIT af90 e .cfa: $rsp .ra: .cfa 8 - ^
STACK CFI af90 .cfa: $rsp 16 +
STACK CFI INIT afa0 44 .cfa: $rsp .ra: .cfa 8 - ^
STACK CFI afa0 .cfa: $rsp 64 +
STACK CFI INIT aff0 25 .cfa: $rsp .ra: .cfa 8 - ^
STACK CFI aff0 .cfa: $rsp 24 +
STACK CFI INIT b020 28 .cfa: $rsp .ra: .cfa 8 - ^
STACK CFI b020 .cfa: $rsp 48 +
STACK CFI INIT b050 4b .cfa: $rsp .ra: .cfa 8 - ^
STACK CFI b050 .cfa: $rsp 64 +
STACK CFI INIT b0a0 27 .cfa: $rsp .ra: .cfa 8 - ^
STACK CFI b0a0 .cfa: $rsp 64 +
STACK CFI INIT b0d0 5b .cfa: $rsp .ra: .cfa 8 - ^
STACK CFI b0d0 .cfa: $rsp 96 +
STACK CFI INIT b130 14 .cfa: $rsp .ra: .cfa 8 - ^
STACK CFI b130 .cfa: $rsp 48 +
STACK CFI INIT b150 23 .cfa: $rsp .ra: .cfa 8 - ^
STACK CFI b150 .cfa: $rsp 64 +
STACK CFI INIT b180 d6 .cfa: $rsp .ra: .cfa 8 - ^
STACK CFI b180 .cfa: $rsp 96 +
STACK CFI INIT b260 14 .cfa: $rsp .ra: .cfa 8 - ^
STACK CFI b260 .cfa: $rsp 64 +
STACK CFI INIT b280 12c .cfa: $rsp .ra: .cfa 8 - ^
STACK CFI b280 .cfa: $rsp 128 +
STACK CFI INIT b3b0 14 .cfa: $rsp .ra: .cfa 8 - ^
STACK CFI b3b0 .cfa: $rsp 64 +
STACK CFI INIT b3d0 48 .cfa: $rsp .ra: .cfa 8 - ^
STACK CFI b3d0 .cfa: $rsp 80 +
STACK CFI INIT b420 4a .cfa: $rsp .ra: .cfa 8 - ^
STACK CFI b420 .cfa: $rsp 80 +
STACK CFI INIT b470 29 .cfa: $rsp .ra: .cfa 8 - ^
STACK CFI b470 .cfa: $rsp 64 +
STACK CFI INIT b4a0 4a .cfa: $rsp .ra: .cfa 8 - ^
STACK CFI b4a0 .cfa: $rsp 80 +
STACK CFI INIT b4f0 19 .cfa: $rsp .ra: .cfa 8 - ^
STACK CFI b4f0 .cfa: $rsp 48 +
STACK CFI INIT b510 19 .cfa: $rsp .ra: .cfa 8 - ^
STACK CFI b510 .cfa: $rsp 48 +
STACK CFI INIT b530 1ab .cfa: $rsp .ra: .cfa 8 - ^
STACK CFI b530 .cfa: $rsp 176 +
STACK CFI INIT b6e0 17 .cfa: $rsp .ra: .cfa 8 - ^
STACK CFI b6e0 .cfa: $rsp 64 +
STACK CFI INIT b700 39 .cfa: $rsp .ra: .cfa 8 - ^
STACK CFI b700 .cfa: $rsp 64 +
STACK CFI INIT b740 2c .cfa: $rsp .ra: .cfa 8 - ^
STACK CFI b740 .cfa: $rsp 64 +
STACK CFI INIT b770 22 .cfa: $rsp .ra: .cfa 8 - ^
STACK CFI b770 .cfa: $rsp 64 +
STACK CFI INIT b7a0 2f .cfa: $rsp .ra: .cfa 8 - ^
STACK CFI b7a0 .cfa: $rsp 24 +
STACK CFI INIT b7d0 64 .cfa: $rsp .ra: .cfa 8 - ^
STACK CFI b7d0 .cfa: $rsp 80 +
STACK CFI INIT b840 aa .cfa: $rsp .ra: .cfa 8 - ^
STACK CFI b840 .cfa: $rsp 64 +
STACK CFI INIT b8f0 e .cfa: $rsp .ra: .cfa 8 - ^
STACK CFI b8f0 .cfa: $rsp 16 +
STACK CFI INIT b900 16 .cfa: $rsp .ra: .cfa 8 - ^
STACK CFI b900 .cfa: $rsp 16 +
STACK CFI INIT b920 7a .cfa: $rsp .ra: .cfa 8 - ^
STACK CFI b920 .cfa: $rsp 64 +
STACK CFI INIT b9a0 14 .cfa: $rsp .ra: .cfa 8 - ^
STACK CFI b9a0 .cfa: $rsp 48 +
STACK CFI INIT b9c0 5f .cfa: $rsp .ra: .cfa 8 - ^
STACK CFI b9c0 .cfa: $rsp 112 +
STACK CFI INIT ba20 f2 .cfa: $rsp .ra: .cfa 8 - ^
STACK CFI ba20 .cfa: $rsp 112 +
STACK CFI INIT bb20 14 .cfa: $rsp .ra: .cfa 8 - ^
STACK CFI bb20 .cfa: $rsp 64 +
STACK CFI INIT bb40 21 .cfa: $rsp .ra: .cfa 8 - ^
STACK CFI bb40 .cfa: $rsp 48 +
STACK CFI INIT bb70 6a .cfa: $rsp .ra: .cfa 8 - ^
STACK CFI bb70 .cfa: $rsp 96 +
STACK CFI INIT bbe0 19 .cfa: $rsp .ra: .cfa 8 - ^
STACK CFI bbe0 .cfa: $rsp 48 +
STACK CFI INIT bc00 ce .cfa: $rsp .ra: .cfa 8 - ^
STACK CFI bc00 .cfa: $rsp 96 +
STACK CFI INIT bcd0 14 .cfa: $rsp .ra: .cfa 8 - ^
STACK CFI bcd0 .cfa: $rsp 64 +
STACK CFI INIT bcf0 30 .cfa: $rsp .ra: .cfa 8 - ^
STACK CFI bcf0 .cfa: $rsp 64 +
STACK CFI INIT bd20 3e .cfa: $rsp .ra: .cfa 8 - ^
STACK CFI bd20 .cfa: $rsp 80 +
STACK CFI INIT bd60 2c .cfa: $rsp .ra: .cfa 8 - ^
STACK CFI bd60 .cfa: $rsp 64 +
STACK CFI INIT bd90 19 .cfa: $rsp .ra: .cfa 8 - ^
STACK CFI bd90 .cfa: $rsp 48 +
STACK CFI INIT bdb0 3b .cfa: $rsp .ra: .cfa 8 - ^
STACK CFI bdb0 .cfa: $rsp 80 +
STACK CFI INIT bdf0 2c .cfa: $rsp .ra: .cfa 8 - ^
STACK CFI bdf0 .cfa: $rsp 64 +
STACK CFI INIT be20 94 .cfa: $rsp .ra: .cfa 8 - ^
STACK CFI be20 .cfa: $rsp 96 +
STACK CFI INIT bec0 54 .cfa: $rsp .ra: .cfa 8 - ^
STACK CFI bec0 .cfa: $rsp 96 +
STACK CFI INIT bf20 23 .cfa: $rsp .ra: .cfa 8 - ^
STACK CFI bf20 .cfa: $rsp 64 +
STACK CFI INIT bf50 c3 .cfa: $rsp .ra: .cfa 8 - ^
STACK CFI bf50 .cfa: $rsp 160 +
STACK CFI INIT c020 21 .cfa: $rsp .ra: .cfa 8 - ^
STACK CFI c020 .cfa: $rsp 48 +
STACK CFI INIT c050 21 .cfa: $rsp .ra: .cfa 8 - ^
STACK CFI c050 .cfa: $rsp 48 +
STACK CFI INIT c080 29 .cfa: $rsp .ra: .cfa 8 - ^
STACK CFI c080 .cfa: $rsp 64 +
STACK CFI INIT c0b0 140 .cfa: $rsp .ra: .cfa 8 - ^
STACK CFI c0b0 .cfa: $rsp 160 +
STACK CFI INIT c1f0 17 .cfa: $rsp .ra: .cfa 8 - ^
STACK CFI c1f0 .cfa: $rsp 64 +
STACK CFI INIT c210 2c .cfa: $rsp .ra: .cfa 8 - ^
STACK CFI c210 .cfa: $rsp 64 +
STACK CFI INIT c240 9d .cfa: $rsp .ra: .cfa 8 - ^
STACK CFI c240 .cfa: $rsp 96 +
STACK CFI INIT c2e0 12 .cfa: $rsp .ra: .cfa 8 - ^
STACK CFI c2e0 .cfa: $rsp 24 +
STACK CFI INIT c300 b8 .cfa: $rsp .ra: .cfa 8 - ^
STACK CFI c300 .cfa: $rsp 96 +
STACK CFI INIT c3c0 16e .cfa: $rsp .ra: .cfa 8 - ^
STACK CFI c3c0 .cfa: $rsp 144 +
STACK CFI INIT c530 53 .cfa: $rsp .ra: .cfa 8 - ^
STACK CFI c530 .cfa: $rsp 80 +
STACK CFI INIT c590 70 .cfa: $rsp .ra: .cfa 8 - ^
STACK CFI c590 .cfa: $rsp 112 +
STACK CFI INIT c610 19 .cfa: $rsp .ra: .cfa 8 - ^
STACK CFI c610 .cfa: $rsp 48 +
STACK CFI INIT c630 19 .cfa: $rsp .ra: .cfa 8 - ^
STACK CFI c630 .cfa: $rsp 48 +
STACK CFI INIT c650 3e .cfa: $rsp .ra: .cfa 8 - ^
STACK CFI c650 .cfa: $rsp 64 +
STACK CFI INIT c690 13e .cfa: $rsp .ra: .cfa 8 - ^
STACK CFI c690 .cfa: $rsp 112 +
STACK CFI INIT c7d0 14 .cfa: $rsp .ra: .cfa 8 - ^
STACK CFI c7d0 .cfa: $rsp 64 +
STACK CFI INIT c7f0 3b .cfa: $rsp .ra: .cfa 8 - ^
STACK CFI c7f0 .cfa: $rsp 64 +
STACK CFI INIT c830 2c .cfa: $rsp .ra: .cfa 8 - ^
STACK CFI c830 .cfa: $rsp 64 +
STACK CFI INIT c860 48 .cfa: $rsp .ra: .cfa 8 - ^
STACK CFI c860 .cfa: $rsp 80 +
STACK CFI INIT c8b0 67 .cfa: $rsp .ra: .cfa 8 - ^
STACK CFI c8b0 .cfa: $rsp 64 +
STACK CFI INIT c920 94 .cfa: $rsp .ra: .cfa 8 - ^
STACK CFI c920 .cfa: $rsp 80 +
STACK CFI INIT c9c0 39 .cfa: $rsp .ra: .cfa 8 - ^
STACK CFI c9c0 .cfa: $rsp 64 +
STACK CFI INIT ca00 5b .cfa: $rsp .ra: .cfa 8 - ^
STACK CFI ca00 .cfa: $rsp 64 +
STACK CFI INIT ca60 2e .cfa: $rsp .ra: .cfa 8 - ^
STACK CFI ca60 .cfa: $rsp 24 +
STACK CFI INIT ca90 11 .cfa: $rsp .ra: .cfa 8 - ^
STACK CFI ca90 .cfa: $rsp 48 +
STACK CFI INIT cab0 ee .cfa: $rsp .ra: .cfa 8 - ^
STACK CFI cab0 .cfa: $rsp 160 +
STACK CFI INIT cba0 19 .cfa: $rsp .ra: .cfa 8 - ^
STACK CFI cba0 .cfa: $rsp 48 +
STACK CFI INIT cbc0 22 .cfa: $rsp .ra: .cfa 8 - ^
STACK CFI cbc0 .cfa: $rsp 64 +
STACK CFI INIT cbf0 2a .cfa: $rsp .ra: .cfa 8 - ^
STACK CFI cbf0 .cfa: $rsp 64 +
STACK CFI INIT cc20 1a .cfa: $rsp .ra: .cfa 8 - ^
STACK CFI cc20 .cfa: $rsp 16 +
STACK CFI INIT cc40 39 .cfa: $rsp .ra: .cfa 8 - ^
STACK CFI cc40 .cfa: $rsp 64 +
STACK CFI INIT cc80 c3 .cfa: $rsp .ra: .cfa 8 - ^
STACK CFI cc80 .cfa: $rsp 144 +
STACK CFI INIT cd50 39 .cfa: $rsp .ra: .cfa 8 - ^
STACK CFI cd50 .cfa: $rsp 64 +
STACK CFI INIT cd90 30 .cfa: $rsp .ra: .cfa 8 - ^
STACK CFI cd90 .cfa: $rsp 64 +
STACK CFI INIT cdc0 c4 .cfa: $rsp .ra: .cfa 8 - ^
STACK CFI cdc0 .cfa: $rsp 144 +
STACK CFI INIT ce90 21 .cfa: $rsp .ra: .cfa 8 - ^
STACK CFI ce90 .cfa: $rsp 48 +
STACK CFI INIT cec0 b .cfa: $rsp .ra: .cfa 8 - ^
STACK CFI cec0 .cfa: $rsp 16 +
STACK CFI INIT ced0 32 .cfa: $rsp .ra: .cfa 8 - ^
STACK CFI ced0 .cfa: $rsp 64 +
STACK CFI INIT cf10 19 .cfa: $rsp .ra: .cfa 8 - ^
STACK CFI cf10 .cfa: $rsp 48 +
STACK CFI INIT cf30 16 .cfa: $rsp .ra: .cfa 8 - ^
STACK CFI cf30 .cfa: $rsp 24 +
STACK CFI INIT cf50 26 .cfa: $rsp .ra: .cfa 8 - ^
STACK CFI cf50 .cfa: $rsp 64 +
STACK CFI INIT cf80 28 .cfa: $rsp .ra: .cfa 8 - ^
STACK CFI cf80 .cfa: $rsp 64 +
STACK CFI INIT cfb0 b .cfa: $rsp .ra: .cfa 8 - ^
STACK CFI cfb0 .cfa: $rsp 16 +
STACK CFI INIT cfc0 45 .cfa: $rsp .ra: .cfa 8 - ^
STACK CFI cfc0 .cfa: $rsp 64 +
STACK CFI INIT d010 b .cfa: $rsp .ra: .cfa 8 - ^
STACK CFI d010 .cfa: $rsp 16 +
STACK CFI INIT d020 60 .cfa: $rsp .ra: .cfa 8 - ^
STACK CFI d020 .cfa: $rsp 80 +
STACK CFI INIT d080 67 .cfa: $rsp .ra: .cfa 8 - ^
STACK CFI d080 .cfa: $rsp 80 +
STACK CFI INIT d0f0 41 .cfa: $rsp .ra: .cfa 8 - ^
STACK CFI d0f0 .cfa: $rsp 64 +
STACK CFI INIT d140 36 .cfa: $rsp .ra: .cfa 8 - ^
STACK CFI d140 .cfa: $rsp 64 +
STACK CFI INIT d180 12 .cfa: $rsp .ra: .cfa 8 - ^
STACK CFI d180 .cfa: $rsp 24 +
STACK CFI INIT d1a0 7 .cfa: $rsp .ra: .cfa 8 - ^
STACK CFI d1a0 .cfa: $rsp 16 +
STACK CFI INIT d1b0 2c .cfa: $rsp .ra: .cfa 8 - ^
STACK CFI d1b0 .cfa: $rsp 64 +
STACK CFI INIT d1e0 ab .cfa: $rsp .ra: .cfa 8 - ^
STACK CFI d1e0 .cfa: $rsp 112 +
STACK CFI INIT d290 41 .cfa: $rsp .ra: .cfa 8 - ^
STACK CFI d290 .cfa: $rsp 64 +
STACK CFI INIT d2e0 5f .cfa: $rsp .ra: .cfa 8 - ^
STACK CFI d2e0 .cfa: $rsp 96 +
STACK CFI INIT d340 1e .cfa: $rsp .ra: .cfa 8 - ^
STACK CFI d340 .cfa: $rsp 48 +
STACK CFI INIT d360 86 .cfa: $rsp .ra: .cfa 8 - ^
STACK CFI d360 .cfa: $rsp 80 +
STACK CFI INIT d3f0 43 .cfa: $rsp .ra: .cfa 8 - ^
STACK CFI d3f0 .cfa: $rsp 64 +
STACK CFI INIT d440 11 .cfa: $rsp .ra: .cfa 8 - ^
STACK CFI d440 .cfa: $rsp 16 +
STACK CFI INIT d460 19 .cfa: $rsp .ra: .cfa 8 - ^
STACK CFI d460 .cfa: $rsp 48 +
STACK CFI INIT d480 b .cfa: $rsp .ra: .cfa 8 - ^
STACK CFI d480 .cfa: $rsp 16 +
STACK CFI INIT d490 26 .cfa: $rsp .ra: .cfa 8 - ^
STACK CFI d490 .cfa: $rsp 24 +
STACK CFI INIT d4c0 39 .cfa: $rsp .ra: .cfa 8 - ^
STACK CFI d4c0 .cfa: $rsp 64 +
STACK CFI INIT d500 35 .cfa: $rsp .ra: .cfa 8 - ^
STACK CFI d500 .cfa: $rsp 64 +
STACK CFI INIT d540 4f .cfa: $rsp .ra: .cfa 8 - ^
STACK CFI d540 .cfa: $rsp 80 +
STACK CFI INIT d590 14 .cfa: $rsp .ra: .cfa 8 - ^
STACK CFI d590 .cfa: $rsp 48 +
STACK CFI INIT d5b0 b .cfa: $rsp .ra: .cfa 8 - ^
STACK CFI d5b0 .cfa: $rsp 16 +
STACK CFI INIT d5c0 cd .cfa: $rsp .ra: .cfa 8 - ^
STACK CFI d5c0 .cfa: $rsp 80 +
STACK CFI INIT d690 28 .cfa: $rsp .ra: .cfa 8 - ^
STACK CFI d690 .cfa: $rsp 64 +
STACK CFI INIT d6c0 30 .cfa: $rsp .ra: .cfa 8 - ^
STACK CFI d6c0 .cfa: $rsp 64 +
STACK CFI INIT d6f0 19 .cfa: $rsp .ra: .cfa 8 - ^
STACK CFI d6f0 .cfa: $rsp 48 +
STACK CFI INIT d710 16 .cfa: $rsp .ra: .cfa 8 - ^
STACK CFI d710 .cfa: $rsp 24 +
STACK CFI INIT d730 b .cfa: $rsp .ra: .cfa 8 - ^
STACK CFI d730 .cfa: $rsp 16 +
STACK CFI INIT d740 3a .cfa: $rsp .ra: .cfa 8 - ^
STACK CFI d740 .cfa: $rsp 64 +
STACK CFI INIT d780 b .cfa: $rsp .ra: .cfa 8 - ^
STACK CFI d780 .cfa: $rsp 16 +
STACK CFI INIT d790 81 .cfa: $rsp .ra: .cfa 8 - ^
STACK CFI d790 .cfa: $rsp 96 +
STACK CFI INIT d820 7d .cfa: $rsp .ra: .cfa 8 - ^
STACK CFI d820 .cfa: $rsp 96 +
STACK CFI INIT d8a0 1e5 .cfa: $rsp .ra: .cfa 8 - ^
STACK CFI d8a0 .cfa: $rsp 192 +
STACK CFI INIT da90 40 .cfa: $rsp .ra: .cfa 8 - ^
STACK CFI da90 .cfa: $rsp 48 +
STACK CFI INIT dad0 28 .cfa: $rsp .ra: .cfa 8 - ^
STACK CFI dad0 .cfa: $rsp 64 +
STACK CFI INIT db00 2d .cfa: $rsp .ra: .cfa 8 - ^
STACK CFI db00 .cfa: $rsp 64 +
STACK CFI INIT db30 b .cfa: $rsp .ra: .cfa 8 - ^
STACK CFI db30 .cfa: $rsp 16 +
STACK CFI INIT db40 52 .cfa: $rsp .ra: .cfa 8 - ^
STACK CFI db40 .cfa: $rsp 80 +
STACK CFI INIT dba0 a7 .cfa: $rsp .ra: .cfa 8 - ^
STACK CFI dba0 .cfa: $rsp 56 +
STACK CFI INIT dc50 41 .cfa: $rsp .ra: .cfa 8 - ^
STACK CFI dc50 .cfa: $rsp 64 +
STACK CFI INIT dca0 11 .cfa: $rsp .ra: .cfa 8 - ^
STACK CFI dca0 .cfa: $rsp 48 +
STACK CFI INIT dcc0 a6 .cfa: $rsp .ra: .cfa 8 - ^
STACK CFI dcc0 .cfa: $rsp 96 +
STACK CFI INIT dd70 26 .cfa: $rsp .ra: .cfa 8 - ^
STACK CFI dd70 .cfa: $rsp 64 +
STACK CFI INIT dda0 2d .cfa: $rsp .ra: .cfa 8 - ^
STACK CFI dda0 .cfa: $rsp 64 +
STACK CFI INIT ddd0 b .cfa: $rsp .ra: .cfa 8 - ^
STACK CFI ddd0 .cfa: $rsp 16 +
STACK CFI INIT dde0 74 .cfa: $rsp .ra: .cfa 8 - ^
STACK CFI dde0 .cfa: $rsp 112 +
STACK CFI INIT de60 17 .cfa: $rsp .ra: .cfa 8 - ^
STACK CFI de60 .cfa: $rsp 32 +
STACK CFI INIT de80 cd .cfa: $rsp .ra: .cfa 8 - ^
STACK CFI de80 .cfa: $rsp 80 +
STACK CFI INIT df50 103 .cfa: $rsp .ra: .cfa 8 - ^
STACK CFI df50 .cfa: $rsp 128 +
STACK CFI INIT e060 11 .cfa: $rsp .ra: .cfa 8 - ^
STACK CFI e060 .cfa: $rsp 16 +
STACK CFI INIT e080 19 .cfa: $rsp .ra: .cfa 8 - ^
STACK CFI e080 .cfa: $rsp 48 +
STACK CFI INIT e0a0 b .cfa: $rsp .ra: .cfa 8 - ^
STACK CFI e0a0 .cfa: $rsp 16 +
STACK CFI INIT e0b0 2e .cfa: $rsp .ra: .cfa 8 - ^
STACK CFI e0b0 .cfa: $rsp 24 +
STACK CFI INIT e0e0 45 .cfa: $rsp .ra: .cfa 8 - ^
STACK CFI e0e0 .cfa: $rsp 64 +
STACK CFI INIT e130 e .cfa: $rsp .ra: .cfa 8 - ^
STACK CFI e130 .cfa: $rsp 16 +
STACK CFI INIT e140 93 .cfa: $rsp .ra: .cfa 8 - ^
STACK CFI e140 .cfa: $rsp 128 +
STACK CFI INIT e1e0 e .cfa: $rsp .ra: .cfa 8 - ^
STACK CFI e1e0 .cfa: $rsp 16 +
STACK CFI INIT e1f0 12 .cfa: $rsp .ra: .cfa 8 - ^
STACK CFI e1f0 .cfa: $rsp 24 +
STACK CFI INIT e210 36 .cfa: $rsp .ra: .cfa 8 - ^
STACK CFI e210 .cfa: $rsp 80 +
STACK CFI INIT e250 44 .cfa: $rsp .ra: .cfa 8 - ^
STACK CFI e250 .cfa: $rsp 80 +
STACK CFI INIT e2a0 23 .cfa: $rsp .ra: .cfa 8 - ^
STACK CFI e2a0 .cfa: $rsp 64 +
STACK CFI INIT e2d0 48 .cfa: $rsp .ra: .cfa 8 - ^
STACK CFI e2d0 .cfa: $rsp 80 +
STACK CFI INIT e320 41 .cfa: $rsp .ra: .cfa 8 - ^
STACK CFI e320 .cfa: $rsp 64 +
STACK CFI INIT e370 d6 .cfa: $rsp .ra: .cfa 8 - ^
STACK CFI e370 .cfa: $rsp 112 +
STACK CFI INIT e450 14 .cfa: $rsp .ra: .cfa 8 - ^
STACK CFI e450 .cfa: $rsp 64 +
STACK CFI INIT e470 45 .cfa: $rsp .ra: .cfa 8 - ^
STACK CFI e470 .cfa: $rsp 32 +
STACK CFI INIT e4c0 22e .cfa: $rsp .ra: .cfa 8 - ^
STACK CFI e4c0 .cfa: $rsp 112 +
STACK CFI INIT e6f0 14 .cfa: $rsp .ra: .cfa 8 - ^
STACK CFI e6f0 .cfa: $rsp 64 +
STACK CFI INIT e710 2d .cfa: $rsp .ra: .cfa 8 - ^
STACK CFI e710 .cfa: $rsp 64 +
STACK CFI INIT e740 220 .cfa: $rsp .ra: .cfa 8 - ^
STACK CFI e740 .cfa: $rsp 112 +
STACK CFI INIT e960 14 .cfa: $rsp .ra: .cfa 8 - ^
STACK CFI e960 .cfa: $rsp 64 +
STACK CFI INIT e980 ce .cfa: $rsp .ra: .cfa 8 - ^
STACK CFI e980 .cfa: $rsp 112 +
STACK CFI INIT ea50 14 .cfa: $rsp .ra: .cfa 8 - ^
STACK CFI ea50 .cfa: $rsp 48 +
STACK CFI INIT ea70 2f .cfa: $rsp .ra: .cfa 8 - ^
STACK CFI ea70 .cfa: $rsp 32 +
STACK CFI INIT eaa0 b .cfa: $rsp .ra: .cfa 8 - ^
STACK CFI eaa0 .cfa: $rsp 16 +
STACK CFI INIT eab0 17a .cfa: $rsp .ra: .cfa 8 - ^
STACK CFI eab0 .cfa: $rsp 112 +
STACK CFI INIT ec30 14 .cfa: $rsp .ra: .cfa 8 - ^
STACK CFI ec30 .cfa: $rsp 64 +
STACK CFI INIT ec50 17d .cfa: $rsp .ra: .cfa 8 - ^
STACK CFI ec50 .cfa: $rsp 112 +
STACK CFI INIT edd0 14 .cfa: $rsp .ra: .cfa 8 - ^
STACK CFI edd0 .cfa: $rsp 64 +
STACK CFI INIT edf0 36 .cfa: $rsp .ra: .cfa 8 - ^
STACK CFI edf0 .cfa: $rsp 80 +
STACK CFI INIT ee30 36 .cfa: $rsp .ra: .cfa 8 - ^
STACK CFI ee30 .cfa: $rsp 80 +
STACK CFI INIT ee70 44 .cfa: $rsp .ra: .cfa 8 - ^
STACK CFI ee70 .cfa: $rsp 80 +
STACK CFI INIT eec0 12 .cfa: $rsp .ra: .cfa 8 - ^
STACK CFI eec0 .cfa: $rsp 24 +
STACK CFI INIT eee0 42 .cfa: $rsp .ra: .cfa 8 - ^
STACK CFI eee0 .cfa: $rsp 64 +
STACK CFI INIT ef30 23 .cfa: $rsp .ra: .cfa 8 - ^
STACK CFI ef30 .cfa: $rsp 64 +
STACK CFI INIT ef60 30 .cfa: $rsp .ra: .cfa 8 - ^
STACK CFI ef60 .cfa: $rsp 64 +
STACK CFI INIT ef90 98 .cfa: $rsp .ra: .cfa 8 - ^
STACK CFI ef90 .cfa: $rsp 96 +
STACK CFI INIT f030 30 .cfa: $rsp .ra: .cfa 8 - ^
STACK CFI f030 .cfa: $rsp 64 +
STACK CFI INIT f060 30 .cfa: $rsp .ra: .cfa 8 - ^
STACK CFI f060 .cfa: $rsp 64 +
STACK CFI INIT f090 2c .cfa: $rsp .ra: .cfa 8 - ^
STACK CFI f090 .cfa: $rsp 64 +
STACK CFI INIT f0c0 d6 .cfa: $rsp .ra: .cfa 8 - ^
STACK CFI f0c0 .cfa: $rsp 112 +
STACK CFI INIT f1a0 14 .cfa: $rsp .ra: .cfa 8 - ^
STACK CFI f1a0 .cfa: $rsp 64 +
STACK CFI INIT f1c0 1f .cfa: $rsp .ra: .cfa 8 - ^
STACK CFI f1c0 .cfa: $rsp 24 +
STACK CFI INIT f1e0 29 .cfa: $rsp .ra: .cfa 8 - ^
STACK CFI f1e0 .cfa: $rsp 64 +
STACK CFI INIT f210 19 .cfa: $rsp .ra: .cfa 8 - ^
STACK CFI f210 .cfa: $rsp 48 +
STACK CFI INIT f230 29 .cfa: $rsp .ra: .cfa 8 - ^
STACK CFI f230 .cfa: $rsp 24 +
STACK CFI INIT f260 22 .cfa: $rsp .ra: .cfa 8 - ^
STACK CFI f260 .cfa: $rsp 64 +
STACK CFI INIT f290 29 .cfa: $rsp .ra: .cfa 8 - ^
STACK CFI f290 .cfa: $rsp 24 +
STACK CFI INIT f2c0 12 .cfa: $rsp .ra: .cfa 8 - ^
STACK CFI f2c0 .cfa: $rsp 16 +
STACK CFI INIT f2e0 14 .cfa: $rsp .ra: .cfa 8 - ^
STACK CFI f2e0 .cfa: $rsp 16 +
STACK CFI INIT f300 4a .cfa: $rsp .ra: .cfa 8 - ^
STACK CFI f300 .cfa: $rsp 80 +
STACK CFI INIT f350 36 .cfa: $rsp .ra: .cfa 8 - ^
STACK CFI f350 .cfa: $rsp 80 +
STACK CFI INIT f390 39 .cfa: $rsp .ra: .cfa 8 - ^
STACK CFI f390 .cfa: $rsp 80 +
STACK CFI INIT f3d0 12 .cfa: $rsp .ra: .cfa 8 - ^
STACK CFI f3d0 .cfa: $rsp 24 +
STACK CFI INIT f3f0 2c .cfa: $rsp .ra: .cfa 8 - ^
STACK CFI f3f0 .cfa: $rsp 64 +
STACK CFI INIT f420 39 .cfa: $rsp .ra: .cfa 8 - ^
STACK CFI f420 .cfa: $rsp 64 +
STACK CFI INIT f460 66 .cfa: $rsp .ra: .cfa 8 - ^
STACK CFI f460 .cfa: $rsp 64 +
STACK CFI INIT f4d0 41 .cfa: $rsp .ra: .cfa 8 - ^
STACK CFI f4d0 .cfa: $rsp 80 +
STACK CFI INIT f520 d7 .cfa: $rsp .ra: .cfa 8 - ^
STACK CFI f520 .cfa: $rsp 112 +
STACK CFI INIT f600 c9 .cfa: $rsp .ra: .cfa 8 - ^
STACK CFI f600 .cfa: $rsp 96 +
STACK CFI INIT f6d0 c5 .cfa: $rsp .ra: .cfa 8 - ^
STACK CFI f6d0 .cfa: $rsp 96 +
STACK CFI INIT f7a0 a8 .cfa: $rsp .ra: .cfa 8 - ^
STACK CFI f7a0 .cfa: $rsp 80 +
STACK CFI INIT f850 14 .cfa: $rsp .ra: .cfa 8 - ^
STACK CFI f850 .cfa: $rsp 48 +
STACK CFI INIT f870 8c .cfa: $rsp .ra: .cfa 8 - ^
STACK CFI f870 .cfa: $rsp 80 +
STACK CFI INIT f900 18 .cfa: $rsp .ra: .cfa 8 - ^
STACK CFI f900 .cfa: $rsp 16 +
STACK CFI INIT f920 a1 .cfa: $rsp .ra: .cfa 8 - ^
STACK CFI f920 .cfa: $rsp 80 +
STACK CFI INIT f9d0 206 .cfa: $rsp .ra: .cfa 8 - ^
STACK CFI f9d0 .cfa: $rsp 432 +
STACK CFI INIT fbe0 127 .cfa: $rsp .ra: .cfa 8 - ^
STACK CFI fbe0 .cfa: $rsp 224 +
STACK CFI INIT fd10 115 .cfa: $rsp .ra: .cfa 8 - ^
STACK CFI fd10 .cfa: $rsp 128 +
STACK CFI INIT fe30 82 .cfa: $rsp .ra: .cfa 8 - ^
STACK CFI fe30 .cfa: $rsp 32 +
STACK CFI INIT fec0 b0 .cfa: $rsp .ra: .cfa 8 - ^
STACK CFI fec0 .cfa: $rsp 80 +
STACK CFI INIT ff70 120 .cfa: $rsp .ra: .cfa 8 - ^
STACK CFI ff70 .cfa: $rsp 96 +
STACK CFI INIT 10090 2c .cfa: $rsp .ra: .cfa 8 - ^
STACK CFI 10090 .cfa: $rsp 64 +
STACK CFI INIT 100c0 2b .cfa: $rsp .ra: .cfa 8 - ^
STACK CFI 100c0 .cfa: $rsp 64 +
STACK CFI INIT 100f0 161 .cfa: $rsp .ra: .cfa 8 - ^
STACK CFI 100f0 .cfa: $rsp 128 +
STACK CFI INIT 10260 a0 .cfa: $rsp .ra: .cfa 8 - ^
STACK CFI 10260 .cfa: $rsp 32 +
STACK CFI INIT 10300 72 .cfa: $rsp .ra: .cfa 8 - ^
STACK CFI 10300 .cfa: $rsp 64 +
STACK CFI INIT 10380 124 .cfa: $rsp .ra: .cfa 8 - ^
STACK CFI 10380 .cfa: $rsp 288 +
STACK CFI INIT 104b0 124 .cfa: $rsp .ra: .cfa 8 - ^
STACK CFI 104b0 .cfa: $rsp 272 +
STACK CFI INIT 105e0 15 .cfa: $rsp .ra: .cfa 8 - ^
STACK CFI 105e0 .cfa: $rsp 48 +
STACK CFI INIT 10600 50 .cfa: $rsp .ra: .cfa 8 - ^
STACK CFI 10600 .cfa: $rsp 64 +
STACK CFI INIT 10650 1d .cfa: $rsp .ra: .cfa 8 - ^
STACK CFI 10650 .cfa: $rsp 48 +
STACK CFI INIT 10670 1d .cfa: $rsp .ra: .cfa 8 - ^
STACK CFI 10670 .cfa: $rsp 48 +
STACK CFI INIT 106b0 3b .cfa: $rsp .ra: .cfa 8 - ^
STACK CFI 106b0 .cfa: $rsp 48 +
STACK CFI INIT 106f0 33 .cfa: $rsp .ra: .cfa 8 - ^
STACK CFI 106f0 .cfa: $rsp 64 +
STACK CFI INIT 10730 7d .cfa: $rsp .ra: .cfa 8 - ^
STACK CFI 10730 .cfa: $rsp 80 +
STACK CFI INIT 107b0 4b .cfa: $rsp .ra: .cfa 8 - ^
STACK CFI 107b0 .cfa: $rsp 64 +
STACK CFI INIT 10810 8b .cfa: $rsp .ra: .cfa 8 - ^
STACK CFI 10810 .cfa: $rsp 96 +
STACK CFI INIT 108a0 62 .cfa: $rsp .ra: .cfa 8 - ^
STACK CFI 108a0 .cfa: $rsp 80 +
STACK CFI INIT 10910 2f .cfa: $rsp .ra: .cfa 8 - ^
STACK CFI 10910 .cfa: $rsp 48 +
STACK CFI INIT 10940 49 .cfa: $rsp .ra: .cfa 8 - ^
STACK CFI 10940 .cfa: $rsp 48 +
STACK CFI INIT 10990 3f .cfa: $rsp .ra: .cfa 8 - ^
STACK CFI 10990 .cfa: $rsp 48 +
STACK CFI INIT 109d0 104 .cfa: $rsp .ra: .cfa 8 - ^
STACK CFI 109d0 .cfa: $rsp 128 +
STACK CFI INIT 10ae0 65 .cfa: $rsp .ra: .cfa 8 - ^
STACK CFI 10ae0 .cfa: $rsp 64 +
STACK CFI INIT 10b50 1d .cfa: $rsp .ra: .cfa 8 - ^
STACK CFI 10b50 .cfa: $rsp 48 +
STACK CFI INIT 10b70 2d .cfa: $rsp .ra: .cfa 8 - ^
STACK CFI 10b70 .cfa: $rsp 48 +
STACK CFI INIT 10ba0 2e .cfa: $rsp .ra: .cfa 8 - ^
STACK CFI 10ba0 .cfa: $rsp 48 +
STACK CFI INIT 10bd0 15 .cfa: $rsp .ra: .cfa 8 - ^
STACK CFI 10bd0 .cfa: $rsp 48 +
STACK CFI INIT 10bf0 30 .cfa: $rsp .ra: .cfa 8 - ^
STACK CFI 10bf0 .cfa: $rsp 48 +
STACK CFI INIT 10c20 15 .cfa: $rsp .ra: .cfa 8 - ^
STACK CFI 10c20 .cfa: $rsp 48 +
STACK CFI INIT 10c40 15 .cfa: $rsp .ra: .cfa 8 - ^
STACK CFI 10c40 .cfa: $rsp 48 +
STACK CFI INIT 10c60 e .cfa: $rsp .ra: .cfa 8 - ^
STACK CFI 10c60 .cfa: $rsp 48 +
STACK CFI INIT 10c70 8a .cfa: $rsp .ra: .cfa 8 - ^
STACK CFI 10c70 .cfa: $rsp 48 +
STACK CFI INIT 10d00 c6 .cfa: $rsp .ra: .cfa 8 - ^
STACK CFI 10d00 .cfa: $rsp 64 +
STACK CFI INIT 10e10 61 .cfa: $rsp .ra: .cfa 8 - ^
STACK CFI 10e10 .cfa: $rsp 80 +
STACK CFI INIT 10eb0 83 .cfa: $rsp .ra: .cfa 8 - ^
STACK CFI 10eb0 .cfa: $rsp 96 +
STACK CFI INIT 10f40 5f .cfa: $rsp .ra: .cfa 8 - ^
STACK CFI 10f40 .cfa: $rsp 64 +
STACK CFI INIT 10fa0 1e .cfa: $rsp .ra: .cfa 8 - ^
STACK CFI 10fa0 .cfa: $rsp 48 +
STACK CFI INIT 10fc0 52 .cfa: $rsp .ra: .cfa 8 - ^
STACK CFI 10fc0 .cfa: $rsp 48 +
STACK CFI INIT 11020 66 .cfa: $rsp .ra: .cfa 8 - ^
STACK CFI 11020 .cfa: $rsp 80 +
STACK CFI INIT 11090 39 .cfa: $rsp .ra: .cfa 8 - ^
STACK CFI 11090 .cfa: $rsp 48 +
STACK CFI INIT 110d0 24 .cfa: $rsp .ra: .cfa 8 - ^
STACK CFI 110d0 .cfa: $rsp 80 +
STACK CFI INIT 11100 24 .cfa: $rsp .ra: .cfa 8 - ^
STACK CFI 11100 .cfa: $rsp 80 +
STACK CFI INIT 11130 3a5 .cfa: $rsp .ra: .cfa 8 - ^
STACK CFI 11130 .cfa: $rsp 96 +
STACK CFI INIT 114f0 25 .cfa: $rsp .ra: .cfa 8 - ^
STACK CFI 114f0 .cfa: $rsp 32 +
STACK CFI INIT 11530 51 .cfa: $rsp .ra: .cfa 8 - ^
STACK CFI 11530 .cfa: $rsp 176 +
STACK CFI INIT 11590 a6 .cfa: $rsp .ra: .cfa 8 - ^
STACK CFI 11590 .cfa: $rsp 64 +
STACK CFI INIT 11650 e .cfa: $rsp .ra: .cfa 8 - ^
STACK CFI 11650 .cfa: $rsp 48 +
STACK CFI INIT 11660 16 .cfa: $rsp .ra: .cfa 8 - ^
STACK CFI 11660 .cfa: $rsp 48 +
STACK CFI INIT 11680 192 .cfa: $rsp .ra: .cfa 8 - ^
STACK CFI 11680 .cfa: $rsp 1536 +
STACK CFI INIT 11830 9a .cfa: $rsp .ra: .cfa 8 - ^
STACK CFI 11830 .cfa: $rsp 64 +
STACK CFI INIT 118e0 1e .cfa: $rsp .ra: .cfa 8 - ^
STACK CFI 118e0 .cfa: $rsp 32 +
STACK CFI INIT 11900 18 .cfa: $rsp .ra: .cfa 8 - ^
STACK CFI 11900 .cfa: $rsp 48 +
STACK CFI INIT 11920 25 .cfa: $rsp .ra: .cfa 8 - ^
STACK CFI 11920 .cfa: $rsp 32 +
STACK CFI INIT 11950 37 .cfa: $rsp .ra: .cfa 8 - ^
STACK CFI 11950 .cfa: $rsp 64 +
STACK CFI INIT 119a0 6b .cfa: $rsp .ra: .cfa 8 - ^
STACK CFI 119a0 .cfa: $rsp 48 +
STACK CFI INIT 11a10 28 .cfa: $rsp .ra: .cfa 8 - ^
STACK CFI 11a10 .cfa: $rsp 48 +
STACK CFI INIT 11a40 3c .cfa: $rsp .ra: .cfa 8 - ^
STACK CFI 11a40 .cfa: $rsp 64 +
STACK CFI INIT 11a90 1d .cfa: $rsp .ra: .cfa 8 - ^
STACK CFI 11a90 .cfa: $rsp 48 +
STACK CFI INIT 11ab0 23 .cfa: $rsp .ra: .cfa 8 - ^
STACK CFI 11ab0 .cfa: $rsp 48 +
STACK CFI INIT 11ae0 26 .cfa: $rsp .ra: .cfa 8 - ^
STACK CFI 11ae0 .cfa: $rsp 48 +
STACK CFI INIT 11b10 26 .cfa: $rsp .ra: .cfa 8 - ^
STACK CFI 11b10 .cfa: $rsp 48 +
STACK CFI INIT 11b40 69 .cfa: $rsp .ra: .cfa 8 - ^
STACK CFI 11b40 .cfa: $rsp 48 +
STACK CFI INIT 11bb0 3f .cfa: $rsp .ra: .cfa 8 - ^
STACK CFI 11bb0 .cfa: $rsp 48 +
STACK CFI INIT 11bf0 45 .cfa: $rsp .ra: .cfa 8 - ^
STACK CFI 11bf0 .cfa: $rsp 48 +
STACK CFI INIT 11c50 48 .cfa: $rsp .ra: .cfa 8 - ^
STACK CFI 11c50 .cfa: $rsp 48 +
STACK CFI INIT 11ca0 48 .cfa: $rsp .ra: .cfa 8 - ^
STACK CFI 11ca0 .cfa: $rsp 48 +
STACK CFI INIT 11cf0 f8 .cfa: $rsp .ra: .cfa 8 - ^
STACK CFI 11cf0 .cfa: $rsp 96 +
STACK CFI INIT 11df0 3a .cfa: $rsp .ra: .cfa 8 - ^
STACK CFI 11df0 .cfa: $rsp 48 +
STACK CFI INIT 11e40 1e .cfa: $rsp .ra: .cfa 8 - ^
STACK CFI 11e40 .cfa: $rsp 8 +
STACK CFI INIT 11e60 9c .cfa: $rsp .ra: .cfa 8 - ^
STACK CFI 11e60 .cfa: $rsp 48 +
STACK CFI INIT 11f00 10f .cfa: $rsp .ra: .cfa 8 - ^
STACK CFI 11f00 .cfa: $rsp 64 +
STACK CFI INIT 12010 13 .cfa: $rsp .ra: .cfa 8 - ^
STACK CFI 12010 .cfa: $rsp 48 +
STACK CFI INIT 12030 d2 .cfa: $rsp .ra: .cfa 8 - ^
STACK CFI 12030 .cfa: $rsp 64 +
STACK CFI INIT 12110 91 .cfa: $rsp .ra: .cfa 8 - ^
STACK CFI 12110 .cfa: $rsp 128 +
STACK CFI INIT 121b0 b2 .cfa: $rsp .ra: .cfa 8 - ^
STACK CFI 121b0 .cfa: $rsp 128 +
STACK CFI INIT 12270 35 .cfa: $rsp .ra: .cfa 8 - ^
STACK CFI 12270 .cfa: $rsp 48 +
STACK CFI INIT 122b0 13a .cfa: $rsp .ra: .cfa 8 - ^
STACK CFI 122b0 .cfa: $rsp 80 +
STACK CFI INIT 123f0 93 .cfa: $rsp .ra: .cfa 8 - ^
STACK CFI 123f0 .cfa: $rsp 64 +
STACK CFI INIT 12490 87 .cfa: $rsp .ra: .cfa 8 - ^
STACK CFI 12490 .cfa: $rsp 64 +
STACK CFI INIT 12520 2a .cfa: $rsp .ra: .cfa 8 - ^
STACK CFI 12520 .cfa: $rsp 48 +
STACK CFI INIT 12550 57 .cfa: $rsp .ra: .cfa 8 - ^
STACK CFI 12550 .cfa: $rsp 64 +
STACK CFI INIT 125b0 135 .cfa: $rsp .ra: .cfa 8 - ^
STACK CFI 125b0 .cfa: $rsp 80 +
STACK CFI INIT 126f0 36 .cfa: $rsp .ra: .cfa 8 - ^
STACK CFI 126f0 .cfa: $rsp 48 +
STACK CFI INIT 12730 74 .cfa: $rsp .ra: .cfa 8 - ^
STACK CFI 12730 .cfa: $rsp 64 +
STACK CFI INIT 127b0 be .cfa: $rsp .ra: .cfa 8 - ^
STACK CFI 127b0 .cfa: $rsp 80 +
STACK CFI INIT 12870 38 .cfa: $rsp .ra: .cfa 8 - ^
STACK CFI 12870 .cfa: $rsp 48 +
STACK CFI INIT 128b0 16 .cfa: $rsp .ra: .cfa 8 - ^
STACK CFI 128b0 .cfa: $rsp 48 +
STACK CFI INIT 128d0 15 .cfa: $rsp .ra: .cfa 8 - ^
STACK CFI 128d0 .cfa: $rsp 48 +
STACK CFI INIT 128f0 45 .cfa: $rsp .ra: .cfa 8 - ^
STACK CFI 128f0 .cfa: $rsp 64 +
STACK CFI INIT 12960 42 .cfa: $rsp .ra: .cfa 8 - ^
STACK CFI 12960 .cfa: $rsp 48 +
STACK CFI INIT 129b0 42 .cfa: $rsp .ra: .cfa 8 - ^
STACK CFI 129b0 .cfa: $rsp 48 +
STACK CFI INIT 12a70 2 .cfa: $rsp .ra: .cfa 8 - ^
STACK CFI 12a70 .cfa: $rsp 8 +
STACK CFI INIT 12a90 6 .cfa: $rsp .ra: .cfa 8 - ^
STACK CFI 12a90 .cfa: $rsp 8 +
STACK CFI INIT 12aa0 3d .cfa: $rsp .ra: .cfa 8 - ^
STACK CFI 12aa0 .cfa: $rsp 48 +
STACK CFI INIT 12ae0 18 .cfa: $rsp .ra: .cfa 8 - ^
STACK CFI 12ae0 .cfa: $rsp 48 +
STACK CFI INIT 12b00 1a .cfa: $rsp .ra: .cfa 8 - ^
STACK CFI 12b00 .cfa: $rsp 48 +
STACK CFI INIT 12b20 1a .cfa: $rsp .ra: .cfa 8 - ^
STACK CFI 12b20 .cfa: $rsp 48 +
STACK CFI INIT 12b3a 16 .cfa: $rsp .ra: .cfa 8 - ^
STACK CFI 12b3a .cfa: $rsp 48 +
STACK CFI INIT 12b50 48 .cfa: $rsp .ra: .cfa 8 - ^
STACK CFI 12b50 .cfa: $rsp 64 +
STACK CFI INIT 12ba0 15 .cfa: $rsp .ra: .cfa 8 - ^
STACK CFI 12ba0 .cfa: $rsp 48 +
