MODULE windows x86_64 044A2D536F830B7F4C4C44205044422E1 shoop_accelerate.pdb
INFO CODE_ID 6597C308C000 shoop_accelerate.dll
FUNC 1000 3d6 0 create_audio_power_pyramid
FUNC 13e0 23 0 static float * create_audio_power_pyramid::<lambda_0>::operator()(unsigned int)
FUNC 1410 9f 0 destroy_audio_power_pyramid
FUNC 14b0 117 0 std::chrono::steady_clock::now()
FUNC 15d0 1a 0 abs(float)
FUNC 15f0 49 0 std::max<float>(float const &,float const &)
FUNC 1640 28 0 pow(float,float)
FUNC 1670 1c 0 log10(float)
FUNC 1690 4a 0 std::max<double>(double const &,double const &)
FUNC 16e0 a1 0 void time_get<char,std::istreambuf_iterator<char,std::char_traits<char> > >::_Getvals<wchar_t>(wchar_t, const class _Locinfo & const)
FUNC 1790 76 0 std::_Maklocwcs(wchar_t const *)
FUNC 1810 a1 0 void time_get<wchar_t,std::istreambuf_iterator<wchar_t,std::char_traits<wchar_t> > >::_Getvals<wchar_t>(wchar_t, const class _Locinfo & const)
FUNC 18c0 21 0 void std::chrono::duration<long long,std::ratio<1,1000000000> >::duration<long long,0>(const __int64 & const)
FUNC 18f0 21 0 void std::chrono::time_point<std::chrono::steady_clock,std::chrono::duration<long long,std::ratio<1,1000000000> > >::time_point(const class std::chrono::duration<long long,std::ratio<1,1000000000> > & const)
FUNC 1920 39 0 wmemcpy
FUNC 1960 50 0 operator new(unsigned __int64)
FUNC 19b0 1d 0 operator delete(void *)
FUNC 19d0 18 0 operator new[](unsigned __int64)
FUNC 19f0 18 0 operator delete[](void *)
FUNC 1a10 49 0 std::exception::exception(char const * const,int)
FUNC 1a60 58 0 std::exception::exception(std::exception const &)
FUNC 1ac0 2e 0 std::exception::~exception()
FUNC 1af0 38 0 std::exception::what()
FUNC 1b30 3b 0 std::exception::`scalar deleting destructor'(unsigned int)
FUNC 1b70 39 0 std::bad_alloc::bad_alloc()
FUNC 1bb0 3c 0 std::bad_alloc::bad_alloc(char const * const)
FUNC 1bf0 18 0 std::bad_alloc::~bad_alloc()
FUNC 1c10 36 0 std::bad_alloc::bad_alloc(std::bad_alloc const &)
FUNC 1c50 3b 0 std::bad_alloc::`scalar deleting destructor'(unsigned int)
FUNC 1c90 33 0 std::bad_array_new_length::bad_array_new_length()
FUNC 1cd0 18 0 std::bad_array_new_length::~bad_array_new_length()
FUNC 1cf0 36 0 std::bad_array_new_length::bad_array_new_length(std::bad_array_new_length const &)
FUNC 1d30 3b 0 std::bad_array_new_length::`scalar deleting destructor'(unsigned int)
FUNC 1d70 24 0 __scrt_throw_std_bad_alloc()
FUNC 1da0 24 0 __scrt_throw_std_bad_array_new_length()
FUNC 1dd0 1d 0 operator delete(void *,unsigned __int64)
FUNC 1df0 15 0 type_info::~type_info()
FUNC 1e10 3b 0 type_info::`scalar deleting destructor'(unsigned int)
FUNC 1e50 13a 0 static int dllmain_crt_process_attach(struct HINSTANCE__ *, void *)
FUNC 1f90 93 0 static int dllmain_crt_process_detach(const bool)
FUNC 2030 87 0 static int dllmain_crt_dispatch(struct HINSTANCE__ *, const unsigned long, void *)
FUNC 20c0 2a 0 CRT_INIT
FUNC 20f0 57 0 static int dllmain_raw(struct HINSTANCE__ *, const unsigned long, void *)
FUNC 2150 135 0 static int dllmain_dispatch(struct HINSTANCE__ *, const unsigned long, void *)
FUNC 2290 36 0 DllMainCRTStartup
FUNC 22d0 74 0 _security_init_cookie
FUNC 2350 be 0 static unsigned __int64 __get_entropy()
FUNC 2410 38 0 DllMain
FUNC 2450 16 0 __scrt_initialize_type_info()
FUNC 2470 15 0 __scrt_uninitialize_type_info()
FUNC 2490 45 0 _scrt_initialize_default_local_stdio_options
FUNC 24e0 8 0 _local_stdio_printf_options
FUNC 24f0 8 0 _local_stdio_scanf_options
FUNC 2500 33 0 atexit
FUNC 2540 7d 0 onexit
FUNC 25c0 4b 0 at_quick_exit
FUNC 2610 a 0 NtCurrentTeb
FUNC 2620 8b 0 _scrt_is_nonwritable_in_current_image
FUNC 26b0 62 0 _scrt_acquire_startup_lock
FUNC 2720 2f 0 _scrt_release_startup_lock
FUNC 2750 49 0 _scrt_initialize_crt
FUNC 27a0 3f 0 _scrt_uninitialize_crt
FUNC 27e0 104 0 _scrt_initialize_onexit_tables
FUNC 28f0 65 0 _scrt_dllmain_exception_filter
FUNC 2960 1d 0 _scrt_dllmain_before_initialize_c
FUNC 2980 2d 0 _scrt_dllmain_after_initialize_c
FUNC 29b0 2e 0 _scrt_dllmain_uninitialize_c
FUNC 29e0 15 0 _scrt_dllmain_uninitialize_critical
FUNC 2a00 30 0 _scrt_dllmain_crt_thread_attach
FUNC 2a30 15 0 _scrt_dllmain_crt_thread_detach
FUNC 2a50 15 0 __scrt_narrow_argv_policy::configure_argv()
FUNC 2a70 e 0 __scrt_narrow_environment_policy::initialize_environment()
FUNC 2a80 8a 0 static bool is_potentially_valid_image_base(void *)
FUNC 2b10 c6 0 static struct _IMAGE_SECTION_HEADER * find_pe_section(unsigned char *, const unsigned __int64)
FUNC 2be0 8 0 _scrt_get_dyn_tls_init_callback
FUNC 2bf0 f 0 _crt_debugger_hook
FUNC 2c00 51 0 _scrt_get_show_window_mode
FUNC 2c60 a6 0 _scrt_is_managed_app
FUNC 2d10 3 0 _scrt_initialize_winrt
FUNC 2d20 e 0 _scrt_initialize_mta
FUNC 2d30 16 0 _scrt_set_unhandled_exception_filter
FUNC 2d50 192 0 _scrt_fastfail
FUNC 2ef0 3 0 _scrt_stub_for_initialize_mta
FUNC 2f00 9a 0 _scrt_unhandled_exception_filter
FUNC 2fa0 42 0 RTC_Initialize
FUNC 2ff0 42 0 RTC_Terminate
FUNC 3040 6 0 guard_check_icall_nop
FUNC 3050 1e 0 ReadNoFence64
FUNC 3070 18 0 ReadPointerNoFence
FUNC 3090 25 0 _castguard_set_user_handler
FUNC 30c0 37 0 guard_icall_checks_enforced
FUNC 3100 3 0 guard_rf_checks_enforced
FUNC 3110 6b 0 static int __castguard_compat_check(void *)
FUNC 3180 28 0 static void __castguard_check_failure_os_handled_wrapper(void *)
FUNC 31b0 3c 0 static void __castguard_check_failure_user_handled_wrapper(void *)
FUNC 31f0 6 0 _castguard_check_failure_nop
FUNC 3200 1d 0 _castguard_check_failure_debugbreak
FUNC 3220 23 0 _castguard_check_failure_fastfail
FUNC 3250 26 0 _castguard_check_failure_os_handled
FUNC 3280 26 0 _castguard_check_failure_user_handled
FUNC 32b0 69 0 static int __castguard_slow_path_compat_check(void *, unsigned __int64, unsigned __int64)
FUNC 3320 3f 0 _castguard_slow_path_check_debugbreak
FUNC 3360 45 0 _castguard_slow_path_check_fastfail
FUNC 33b0 10 0 _castguard_slow_path_check_nop
FUNC 33c0 48 0 _castguard_slow_path_check_os_handled
FUNC 3410 48 0 _castguard_slow_path_check_user_handled
FUNC 3460 3a5 0 _isa_available_init
FUNC 3810 6 0 get_startup_argv_mode
FUNC 3820 25 0 _scrt_is_ucrt_dll_in_use
FUNC 3850 f8 0 _GSHandlerCheckCommon
FUNC 3950 3a 0 _GSHandlerCheck
FUNC 39a0 1e 0 _security_check_cookie
FUNC 39c0 9c 0 _report_securityfailure
FUNC 3a60 10f 0 _report_securityfailureEx
FUNC 3b70 13 0 _report_rangecheckfailure
FUNC 3b90 d2 0 _report_gsfailure
FUNC 3c70 91 0 static void capture_current_context(struct _CONTEXT *)
FUNC 3d10 b2 0 static void capture_previous_context(struct _CONTEXT *)
FUNC 3dd0 35 0 _raise_securityfailure
FUNC 3e10 3 0 _scrt_stub_for_acrt_initialize
FUNC 3e20 7 0 _scrt_stub_for_acrt_uninitialize
FUNC 3e30 7 0 _scrt_stub_for_acrt_uninitialize_critical
FUNC 3e40 3 0 _scrt_stub_for_acrt_thread_attach
FUNC 3e50 3 0 _scrt_stub_for_acrt_thread_detach
FUNC 3e60 3 0 _scrt_stub_for_is_c_termination_complete
FUNC 3e80 2 0 guard_dispatch_icall_nop
FUNC 3ea0 6 0 guard_xfg_dispatch_icall_nop
FUNC 3eb0 1a 0 static  `dllmain_crt_process_attach'::`1'::fin$0()
FUNC 3ed0 1a 0 static  `dllmain_crt_process_detach'::`1'::fin$0()
FUNC 3eea 16 0 static  `dllmain_crt_process_detach'::`1'::fin$1()
FUNC 3f00 48 0 static  `dllmain_dispatch'::`1'::filt$0()
FUNC 3f50 3d 0 static  __scrt_is_nonwritable_in_current_image$filt$0()
PUBLIC 3f90 0 std::_Xbad_alloc()
PUBLIC 3fa0 0 Query_perf_counter
PUBLIC 3fb0 0 Query_perf_frequency
PUBLIC 3fc0 0 std::_Locinfo::_Getcvt()
PUBLIC 3fd0 0 std::_Locinfo::_W_Getdays()
PUBLIC 3fe0 0 std::_Locinfo::_W_Getmonths()
PUBLIC 3ff0 0 QueryPerformanceCounter
PUBLIC 4000 0 GetCurrentProcessId
PUBLIC 4010 0 GetCurrentThreadId
PUBLIC 4020 0 GetSystemTimeAsFileTime
PUBLIC 4030 0 DisableThreadLibraryCalls
PUBLIC 4040 0 InitializeSListHead
PUBLIC 4050 0 RtlCaptureContext
PUBLIC 4060 0 RtlLookupFunctionEntry
PUBLIC 4070 0 RtlVirtualUnwind
PUBLIC 4080 0 IsDebuggerPresent
PUBLIC 4090 0 UnhandledExceptionFilter
PUBLIC 40a0 0 SetUnhandledExceptionFilter
PUBLIC 40b0 0 GetStartupInfoW
PUBLIC 40c0 0 IsProcessorFeaturePresent
PUBLIC 40d0 0 GetModuleHandleW
PUBLIC 40e0 0 CxxThrowException
PUBLIC 40f0 0 _C_specific_handler
PUBLIC 4100 0 _CxxFrameHandler3
PUBLIC 4110 0 _current_exception
PUBLIC 4120 0 _current_exception_context
PUBLIC 4130 0 _std_exception_copy
PUBLIC 4140 0 _std_exception_destroy
PUBLIC 4150 0 _std_terminate
PUBLIC 4160 0 _std_type_info_destroy_list
PUBLIC 4170 0 memcpy
PUBLIC 4180 0 calloc_dbg
PUBLIC 4190 0 free
PUBLIC 41a0 0 log10f
PUBLIC 41b0 0 malloc
PUBLIC 41c0 0 powf
PUBLIC 41d0 0 wcslen
PUBLIC 41e0 0 callnewh
PUBLIC 41f0 0 cexit
PUBLIC 4200 0 configure_narrow_argv
PUBLIC 4210 0 crt_at_quick_exit
PUBLIC 4220 0 crt_atexit
PUBLIC 4230 0 execute_onexit_table
PUBLIC 4240 0 free_dbg
PUBLIC 4250 0 initialize_narrow_environment
PUBLIC 4260 0 initialize_onexit_table
PUBLIC 4270 0 initterm
PUBLIC 4280 0 initterm_e
PUBLIC 4290 0 register_onexit_function
PUBLIC 42a0 0 seh_filter_dll
PUBLIC 42b0 0 terminate
PUBLIC 42c0 0 GetCurrentProcess
PUBLIC 42d0 0 TerminateProcess
STACK CFI INIT 1000 3d6 .cfa: $rsp .ra: .cfa 8 - ^
STACK CFI 1000 .cfa: $rsp 192 +
STACK CFI INIT 13e0 23 .cfa: $rsp .ra: .cfa 8 - ^
STACK CFI 13e0 .cfa: $rsp 64 +
STACK CFI INIT 1410 9f .cfa: $rsp .ra: .cfa 8 - ^
STACK CFI 1410 .cfa: $rsp 80 +
STACK CFI INIT 14b0 fc .cfa: $rsp .ra: .cfa 8 - ^
STACK CFI 14b0 .cfa: $rsp 176 +
STACK CFI INIT 15b0 17 .cfa: $rsp .ra: .cfa 8 - ^
STACK CFI 15b0 .cfa: $rsp 48 +
STACK CFI INIT 15d0 1a .cfa: $rsp .ra: .cfa 8 - ^
STACK CFI 15d0 .cfa: $rsp 16 +
STACK CFI INIT 15f0 49 .cfa: $rsp .ra: .cfa 8 - ^
STACK CFI 15f0 .cfa: $rsp 32 +
STACK CFI INIT 1640 28 .cfa: $rsp .ra: .cfa 8 - ^
STACK CFI 1640 .cfa: $rsp 48 +
STACK CFI INIT 1670 1c .cfa: $rsp .ra: .cfa 8 - ^
STACK CFI 1670 .cfa: $rsp 48 +
STACK CFI INIT 1690 4a .cfa: $rsp .ra: .cfa 8 - ^
STACK CFI 1690 .cfa: $rsp 32 +
STACK CFI INIT 16e0 a1 .cfa: $rsp .ra: .cfa 8 - ^
STACK CFI 16e0 .cfa: $rsp 128 +
STACK CFI INIT 1790 76 .cfa: $rsp .ra: .cfa 8 - ^
STACK CFI 1790 .cfa: $rsp 80 +
STACK CFI INIT 1810 a1 .cfa: $rsp .ra: .cfa 8 - ^
STACK CFI 1810 .cfa: $rsp 128 +
STACK CFI INIT 18c0 21 .cfa: $rsp .ra: .cfa 8 - ^
STACK CFI 18c0 .cfa: $rsp 24 +
STACK CFI INIT 18f0 21 .cfa: $rsp .ra: .cfa 8 - ^
STACK CFI 18f0 .cfa: $rsp 24 +
STACK CFI INIT 1920 39 .cfa: $rsp .ra: .cfa 8 - ^
STACK CFI 1920 .cfa: $rsp 80 +
STACK CFI INIT 1960 50 .cfa: $rsp .ra: .cfa 8 - ^
STACK CFI 1960 .cfa: $rsp 64 +
STACK CFI INIT 19b0 1d .cfa: $rsp .ra: .cfa 8 - ^
STACK CFI 19b0 .cfa: $rsp 48 +
STACK CFI INIT 19d0 18 .cfa: $rsp .ra: .cfa 8 - ^
STACK CFI 19d0 .cfa: $rsp 48 +
STACK CFI INIT 19f0 18 .cfa: $rsp .ra: .cfa 8 - ^
STACK CFI 19f0 .cfa: $rsp 48 +
STACK CFI INIT 1a10 49 .cfa: $rsp .ra: .cfa 8 - ^
STACK CFI 1a10 .cfa: $rsp 16 +
STACK CFI INIT 1a60 58 .cfa: $rsp .ra: .cfa 8 - ^
STACK CFI 1a60 .cfa: $rsp 48 +
STACK CFI INIT 1ac0 2e .cfa: $rsp .ra: .cfa 8 - ^
STACK CFI 1ac0 .cfa: $rsp 48 +
STACK CFI INIT 1af0 38 .cfa: $rsp .ra: .cfa 8 - ^
STACK CFI 1af0 .cfa: $rsp 32 +
STACK CFI INIT 1b30 3b .cfa: $rsp .ra: .cfa 8 - ^
STACK CFI 1b30 .cfa: $rsp 48 +
STACK CFI INIT 1b70 39 .cfa: $rsp .ra: .cfa 8 - ^
STACK CFI 1b70 .cfa: $rsp 48 +
STACK CFI INIT 1bb0 3c .cfa: $rsp .ra: .cfa 8 - ^
STACK CFI 1bb0 .cfa: $rsp 48 +
STACK CFI INIT 1bf0 18 .cfa: $rsp .ra: .cfa 8 - ^
STACK CFI 1bf0 .cfa: $rsp 48 +
STACK CFI INIT 1c10 36 .cfa: $rsp .ra: .cfa 8 - ^
STACK CFI 1c10 .cfa: $rsp 48 +
STACK CFI INIT 1c50 3b .cfa: $rsp .ra: .cfa 8 - ^
STACK CFI 1c50 .cfa: $rsp 48 +
STACK CFI INIT 1c90 33 .cfa: $rsp .ra: .cfa 8 - ^
STACK CFI 1c90 .cfa: $rsp 48 +
STACK CFI INIT 1cd0 18 .cfa: $rsp .ra: .cfa 8 - ^
STACK CFI 1cd0 .cfa: $rsp 48 +
STACK CFI INIT 1cf0 36 .cfa: $rsp .ra: .cfa 8 - ^
STACK CFI 1cf0 .cfa: $rsp 48 +
STACK CFI INIT 1d30 3b .cfa: $rsp .ra: .cfa 8 - ^
STACK CFI 1d30 .cfa: $rsp 48 +
STACK CFI INIT 1d70 24 .cfa: $rsp .ra: .cfa 8 - ^
STACK CFI 1d70 .cfa: $rsp 80 +
STACK CFI INIT 1da0 24 .cfa: $rsp .ra: .cfa 8 - ^
STACK CFI 1da0 .cfa: $rsp 80 +
STACK CFI INIT 1dd0 1d .cfa: $rsp .ra: .cfa 8 - ^
STACK CFI 1dd0 .cfa: $rsp 48 +
STACK CFI INIT 1e10 3b .cfa: $rsp .ra: .cfa 8 - ^
STACK CFI 1e10 .cfa: $rsp 48 +
STACK CFI INIT 1e50 13a .cfa: $rsp .ra: .cfa 8 - ^
STACK CFI 1e50 .cfa: $rsp 80 +
STACK CFI INIT 1f90 93 .cfa: $rsp .ra: .cfa 8 - ^
STACK CFI 1f90 .cfa: $rsp 64 +
STACK CFI INIT 2030 87 .cfa: $rsp .ra: .cfa 8 - ^
STACK CFI 2030 .cfa: $rsp 64 +
STACK CFI INIT 20c0 2a .cfa: $rsp .ra: .cfa 8 - ^
STACK CFI 20c0 .cfa: $rsp 48 +
STACK CFI INIT 20f0 57 .cfa: $rsp .ra: .cfa 8 - ^
STACK CFI 20f0 .cfa: $rsp 64 +
STACK CFI INIT 2150 135 .cfa: $rsp .ra: .cfa 8 - ^
STACK CFI 2150 .cfa: $rsp 80 +
STACK CFI INIT 2290 36 .cfa: $rsp .ra: .cfa 8 - ^
STACK CFI 2290 .cfa: $rsp 48 +
STACK CFI INIT 22d0 74 .cfa: $rsp .ra: .cfa 8 - ^
STACK CFI 22d0 .cfa: $rsp 64 +
STACK CFI INIT 2350 be .cfa: $rsp .ra: .cfa 8 - ^
STACK CFI 2350 .cfa: $rsp 80 +
STACK CFI INIT 2410 38 .cfa: $rsp .ra: .cfa 8 - ^
STACK CFI 2410 .cfa: $rsp 48 +
STACK CFI INIT 2450 16 .cfa: $rsp .ra: .cfa 8 - ^
STACK CFI 2450 .cfa: $rsp 48 +
STACK CFI INIT 2470 15 .cfa: $rsp .ra: .cfa 8 - ^
STACK CFI 2470 .cfa: $rsp 48 +
STACK CFI INIT 2490 45 .cfa: $rsp .ra: .cfa 8 - ^
STACK CFI 2490 .cfa: $rsp 64 +
STACK CFI INIT 2500 33 .cfa: $rsp .ra: .cfa 8 - ^
STACK CFI 2500 .cfa: $rsp 64 +
STACK CFI INIT 2540 7d .cfa: $rsp .ra: .cfa 8 - ^
STACK CFI 2540 .cfa: $rsp 80 +
STACK CFI INIT 25c0 4b .cfa: $rsp .ra: .cfa 8 - ^
STACK CFI 25c0 .cfa: $rsp 64 +
STACK CFI INIT 2620 8b .cfa: $rsp .ra: .cfa 8 - ^
STACK CFI 2620 .cfa: $rsp 96 +
STACK CFI INIT 26b0 62 .cfa: $rsp .ra: .cfa 8 - ^
STACK CFI 26b0 .cfa: $rsp 80 +
STACK CFI INIT 2720 2f .cfa: $rsp .ra: .cfa 8 - ^
STACK CFI 2720 .cfa: $rsp 48 +
STACK CFI INIT 2750 49 .cfa: $rsp .ra: .cfa 8 - ^
STACK CFI 2750 .cfa: $rsp 48 +
STACK CFI INIT 27a0 3f .cfa: $rsp .ra: .cfa 8 - ^
STACK CFI 27a0 .cfa: $rsp 48 +
STACK CFI INIT 27e0 104 .cfa: $rsp .ra: .cfa 8 - ^
STACK CFI 27e0 .cfa: $rsp 128 +
STACK CFI INIT 28f0 65 .cfa: $rsp .ra: .cfa 8 - ^
STACK CFI 28f0 .cfa: $rsp 64 +
STACK CFI INIT 2960 1d .cfa: $rsp .ra: .cfa 8 - ^
STACK CFI 2960 .cfa: $rsp 48 +
STACK CFI INIT 2980 2d .cfa: $rsp .ra: .cfa 8 - ^
STACK CFI 2980 .cfa: $rsp 48 +
STACK CFI INIT 29b0 2e .cfa: $rsp .ra: .cfa 8 - ^
STACK CFI 29b0 .cfa: $rsp 48 +
STACK CFI INIT 29e0 15 .cfa: $rsp .ra: .cfa 8 - ^
STACK CFI 29e0 .cfa: $rsp 48 +
STACK CFI INIT 2a00 30 .cfa: $rsp .ra: .cfa 8 - ^
STACK CFI 2a00 .cfa: $rsp 48 +
STACK CFI INIT 2a30 15 .cfa: $rsp .ra: .cfa 8 - ^
STACK CFI 2a30 .cfa: $rsp 48 +
STACK CFI INIT 2a50 15 .cfa: $rsp .ra: .cfa 8 - ^
STACK CFI 2a50 .cfa: $rsp 48 +
STACK CFI INIT 2a70 e .cfa: $rsp .ra: .cfa 8 - ^
STACK CFI 2a70 .cfa: $rsp 48 +
STACK CFI INIT 2a80 8a .cfa: $rsp .ra: .cfa 8 - ^
STACK CFI 2a80 .cfa: $rsp 48 +
STACK CFI INIT 2b10 c6 .cfa: $rsp .ra: .cfa 8 - ^
STACK CFI 2b10 .cfa: $rsp 64 +
STACK CFI INIT 2c00 51 .cfa: $rsp .ra: .cfa 8 - ^
STACK CFI 2c00 .cfa: $rsp 176 +
STACK CFI INIT 2c60 a6 .cfa: $rsp .ra: .cfa 8 - ^
STACK CFI 2c60 .cfa: $rsp 64 +
STACK CFI INIT 2d20 e .cfa: $rsp .ra: .cfa 8 - ^
STACK CFI 2d20 .cfa: $rsp 48 +
STACK CFI INIT 2d30 16 .cfa: $rsp .ra: .cfa 8 - ^
STACK CFI 2d30 .cfa: $rsp 48 +
STACK CFI INIT 2d50 192 .cfa: $rsp .ra: .cfa 8 - ^
STACK CFI 2d50 .cfa: $rsp 1536 +
STACK CFI INIT 2f00 9a .cfa: $rsp .ra: .cfa 8 - ^
STACK CFI 2f00 .cfa: $rsp 64 +
STACK CFI INIT 2fa0 42 .cfa: $rsp .ra: .cfa 8 - ^
STACK CFI 2fa0 .cfa: $rsp 48 +
STACK CFI INIT 2ff0 42 .cfa: $rsp .ra: .cfa 8 - ^
STACK CFI 2ff0 .cfa: $rsp 48 +
STACK CFI INIT 3050 1e .cfa: $rsp .ra: .cfa 8 - ^
STACK CFI 3050 .cfa: $rsp 32 +
STACK CFI INIT 3070 18 .cfa: $rsp .ra: .cfa 8 - ^
STACK CFI 3070 .cfa: $rsp 48 +
STACK CFI INIT 3090 25 .cfa: $rsp .ra: .cfa 8 - ^
STACK CFI 3090 .cfa: $rsp 32 +
STACK CFI INIT 30c0 37 .cfa: $rsp .ra: .cfa 8 - ^
STACK CFI 30c0 .cfa: $rsp 64 +
STACK CFI INIT 3110 6b .cfa: $rsp .ra: .cfa 8 - ^
STACK CFI 3110 .cfa: $rsp 48 +
STACK CFI INIT 3180 28 .cfa: $rsp .ra: .cfa 8 - ^
STACK CFI 3180 .cfa: $rsp 48 +
STACK CFI INIT 31b0 3c .cfa: $rsp .ra: .cfa 8 - ^
STACK CFI 31b0 .cfa: $rsp 64 +
STACK CFI INIT 3200 1d .cfa: $rsp .ra: .cfa 8 - ^
STACK CFI 3200 .cfa: $rsp 48 +
STACK CFI INIT 3220 23 .cfa: $rsp .ra: .cfa 8 - ^
STACK CFI 3220 .cfa: $rsp 48 +
STACK CFI INIT 3250 26 .cfa: $rsp .ra: .cfa 8 - ^
STACK CFI 3250 .cfa: $rsp 48 +
STACK CFI INIT 3280 26 .cfa: $rsp .ra: .cfa 8 - ^
STACK CFI 3280 .cfa: $rsp 48 +
STACK CFI INIT 32b0 69 .cfa: $rsp .ra: .cfa 8 - ^
STACK CFI 32b0 .cfa: $rsp 48 +
STACK CFI INIT 3320 3f .cfa: $rsp .ra: .cfa 8 - ^
STACK CFI 3320 .cfa: $rsp 48 +
STACK CFI INIT 3360 45 .cfa: $rsp .ra: .cfa 8 - ^
STACK CFI 3360 .cfa: $rsp 48 +
STACK CFI INIT 33c0 48 .cfa: $rsp .ra: .cfa 8 - ^
STACK CFI 33c0 .cfa: $rsp 48 +
STACK CFI INIT 3410 48 .cfa: $rsp .ra: .cfa 8 - ^
STACK CFI 3410 .cfa: $rsp 48 +
STACK CFI INIT 3460 3a5 .cfa: $rsp .ra: .cfa 8 - ^
STACK CFI 3460 .cfa: $rsp 96 +
STACK CFI INIT 3820 25 .cfa: $rsp .ra: .cfa 8 - ^
STACK CFI 3820 .cfa: $rsp 32 +
STACK CFI INIT 3850 f8 .cfa: $rsp .ra: .cfa 8 - ^
STACK CFI 3850 .cfa: $rsp 96 +
STACK CFI INIT 3950 3a .cfa: $rsp .ra: .cfa 8 - ^
STACK CFI 3950 .cfa: $rsp 48 +
STACK CFI INIT 39a0 1e .cfa: $rsp .ra: .cfa 8 - ^
STACK CFI 39a0 .cfa: $rsp 8 +
STACK CFI INIT 39c0 9c .cfa: $rsp .ra: .cfa 8 - ^
STACK CFI 39c0 .cfa: $rsp 48 +
STACK CFI INIT 3a60 10f .cfa: $rsp .ra: .cfa 8 - ^
STACK CFI 3a60 .cfa: $rsp 64 +
STACK CFI INIT 3b70 13 .cfa: $rsp .ra: .cfa 8 - ^
STACK CFI 3b70 .cfa: $rsp 48 +
STACK CFI INIT 3b90 d2 .cfa: $rsp .ra: .cfa 8 - ^
STACK CFI 3b90 .cfa: $rsp 64 +
STACK CFI INIT 3c70 91 .cfa: $rsp .ra: .cfa 8 - ^
STACK CFI 3c70 .cfa: $rsp 128 +
STACK CFI INIT 3d10 b2 .cfa: $rsp .ra: .cfa 8 - ^
STACK CFI 3d10 .cfa: $rsp 128 +
STACK CFI INIT 3dd0 35 .cfa: $rsp .ra: .cfa 8 - ^
STACK CFI 3dd0 .cfa: $rsp 48 +
STACK CFI INIT 3e80 2 .cfa: $rsp .ra: .cfa 8 - ^
STACK CFI 3e80 .cfa: $rsp 8 +
STACK CFI INIT 3ea0 6 .cfa: $rsp .ra: .cfa 8 - ^
STACK CFI 3ea0 .cfa: $rsp 8 +
STACK CFI INIT 3eb0 1a .cfa: $rsp .ra: .cfa 8 - ^
STACK CFI 3eb0 .cfa: $rsp 48 +
STACK CFI INIT 3ed0 1a .cfa: $rsp .ra: .cfa 8 - ^
STACK CFI 3ed0 .cfa: $rsp 48 +
STACK CFI INIT 3eea 16 .cfa: $rsp .ra: .cfa 8 - ^
STACK CFI 3eea .cfa: $rsp 48 +
STACK CFI INIT 3f00 48 .cfa: $rsp .ra: .cfa 8 - ^
STACK CFI 3f00 .cfa: $rsp 64 +
STACK CFI INIT 3f50 3d .cfa: $rsp .ra: .cfa 8 - ^
STACK CFI 3f50 .cfa: $rsp 48 +
